HAC/65 v0.5 6502 Inferencing Disassembler [run:Wed Nov  7 02:22:35 2018]
hac65 -AAtari800OSA -Rd -i rom/800apal.rom[md5:eb1f32f5d9f382db1bbfb8d7f9cb343a]

Architecture Overlays:
    Atari800OSA
    Atari800Base
    Builtin_MOS6502

Disassembly Report
------------------
Assembly size (bytes) : 10240
  Instruction         : 8394
  Illegal instruction : 0
  Data                : 1846
Instructions (count)  : 3990

                                 *= $D800

D800  20 A1 DB  AFP              JSR $DBA1
D803  20 BB DB                   JSR $DBBB
D806  B0 39                      BCS $D841
D808  A2 ED                      LDX #$ED     
D80A  A0 04                      LDY #4       ;OPNIN?
D80C  20 48 DA                   JSR $DA48
D80F  A2 FF                      LDX #$FF     ;IOCFRE?
D811  86 F1                      STX DIGRT
D813  20 44 DA                   JSR ZFR0
D816  F0 04                      BEQ $D81C
D818  A9 FF                      LDA #$FF     ;IOCFRE?
D81A  85 F0                      STA FCHRFLG
D81C  20 94 DB                   JSR $DB94
D81F  B0 21                      BCS $D842
D821  48                         PHA 
D822  A6 D5                      LDX FR0+1
D824  D0 11                      BNE $D837
D826  20 EB DB                   JSR $DBEB
D829  68                         PLA 
D82A  05 D9                      ORA FR0+5
D82C  85 D9                      STA FR0+5
D82E  A6 F1                      LDX DIGRT
D830  30 E6                      BMI $D818
D832  E8                         INX 
D833  86 F1                      STX DIGRT
D835  D0 E1                      BNE $D818
D837  68                         PLA 
D838  A6 F1                      LDX DIGRT
D83A  10 02                      BPL $D83E
D83C  E6 ED                      INC EEXP
D83E  4C 18 D8                   JMP $D818
D841  60                         RTS 
D842  C9 2E                      CMP #$2E     
D844  F0 14                      BEQ $D85A
D846  C9 45                      CMP #$45     ;ERROR?, SCREDT?
D848  F0 19                      BEQ $D863
D84A  A6 F0                      LDX FCHRFLG
D84C  D0 68                      BNE $D8B6
D84E  C9 2B                      CMP #$2B     
D850  F0 C6                      BEQ $D818
D852  C9 2D                      CMP #$2D     
D854  F0 00                      BEQ $D856
D856  85 EE                      STA NSIGN
D858  F0 BE                      BEQ $D818
D85A  A6 F1                      LDX DIGRT
D85C  10 58                      BPL $D8B6
D85E  E8                         INX 
D85F  86 F1                      STX DIGRT
D861  F0 B5                      BEQ $D818
D863  A5 F2                      LDA CIX
D865  85 EC                      STA FRX
D867  20 94 DB                   JSR $DB94
D86A  B0 37                      BCS $D8A3
D86C  AA                         TAX 
D86D  A5 ED                      LDA EEXP
D86F  48                         PHA 
D870  86 ED                      STX EEXP
D872  20 94 DB                   JSR $DB94
D875  B0 17                      BCS $D88E
D877  48                         PHA 
D878  A5 ED                      LDA EEXP
D87A  0A                         ASL A
D87B  85 ED                      STA EEXP
D87D  0A                         ASL A
D87E  0A                         ASL A
D87F  65 ED                      ADC EEXP
D881  85 ED                      STA EEXP
D883  68                         PLA 
D884  18                         CLC 
D885  65 ED                      ADC EEXP
D887  85 ED                      STA EEXP
D889  A4 F2                      LDY CIX
D88B  20 9D DB                   JSR $DB9D
D88E  A5 EF                      LDA ESIGN
D890  F0 09                      BEQ $D89B
D892  A5 ED                      LDA EEXP
D894  49 FF                      EOR #$FF     ;IOCFRE?
D896  18                         CLC 
D897  69 01                      ADC #1       ;APPEND?, DRETRI?, SUCCES?
D899  85 ED                      STA EEXP
D89B  68                         PLA 
D89C  18                         CLC 
D89D  65 ED                      ADC EEXP
D89F  85 ED                      STA EEXP
D8A1  D0 13                      BNE $D8B6
D8A3  C9 2B                      CMP #$2B     
D8A5  F0 06                      BEQ $D8AD
D8A7  C9 2D                      CMP #$2D     
D8A9  D0 07                      BNE $D8B2
D8AB  85 EF                      STA ESIGN
D8AD  20 94 DB                   JSR $DB94
D8B0  90 BA                      BCC $D86C
D8B2  A5 EC                      LDA FRX
D8B4  85 F2                      STA CIX
D8B6  C6 F2                      DEC CIX
D8B8  A5 ED                      LDA EEXP
D8BA  A6 F1                      LDX DIGRT
D8BC  30 05                      BMI $D8C3
D8BE  F0 03                      BEQ $D8C3
D8C0  38                         SEC 
D8C1  E5 F1                      SBC DIGRT
D8C3  48                         PHA 
D8C4  2A                         ROL A
D8C5  68                         PLA 
D8C6  6A                         ROR A
D8C7  85 ED                      STA EEXP
D8C9  90 03                      BCC $D8CE
D8CB  20 EB DB                   JSR $DBEB
D8CE  A5 ED                      LDA EEXP
D8D0  18                         CLC 
D8D1  69 44                      ADC #$44     ;DISK?, DOUBLE?
D8D3  85 D4                      STA FR0
D8D5  20 00 DC                   JSR $DC00
D8D8  B0 0B                      BCS $D8E5
D8DA  A6 EE                      LDX NSIGN
D8DC  F0 06                      BEQ $D8E4
D8DE  A5 D4                      LDA FR0
D8E0  09 80                      ORA #$80     ;BRKABT?, MAXIOC?
D8E2  85 D4                      STA FR0
D8E4  18                         CLC 
D8E5  60                         RTS 
D8E6  20 51 DA  FASC             JSR $DA51
D8E9  A9 30                      LDA #$30     ;ASCZER?, FLOPPY?
D8EB  8D 7F 05                   STA LBPR2
D8EE  A5 D4                      LDA FR0
D8F0  F0 28                      BEQ $D91A
D8F2  29 7F                      AND #$7F     
D8F4  C9 3F                      CMP #$3F     
D8F6  90 28                      BCC $D920
D8F8  C9 45                      CMP #$45     ;ERROR?, SCREDT?
D8FA  B0 24                      BCS $D920
D8FC  38                         SEC 
D8FD  E9 3F                      SBC #$3F     
D8FF  20 70 DC                   JSR $DC70
D902  20 A4 DC                   JSR $DCA4
D905  09 80                      ORA #$80     ;BRKABT?, MAXIOC?
D907  9D 80 05                   STA LBUFF,X
D90A  AD 80 05                   LDA LBUFF
D90D  C9 2E                      CMP #$2E     
D90F  F0 03                      BEQ $D914
D911  4C 88 D9                   JMP $D988
D914  20 C1 DC                   JSR $DCC1
D917  4C 9C D9                   JMP $D99C
D91A  A9 B0                      LDA #$B0     
D91C  8D 80 05                   STA LBUFF
D91F  60                         RTS 
D920  A9 01                      LDA #1       ;APPEND?, DRETRI?, SUCCES?
D922  20 70 DC                   JSR $DC70
D925  20 A4 DC                   JSR $DCA4
D928  E8                         INX 
D929  86 F2                      STX CIX
D92B  A5 D4                      LDA FR0
D92D  0A                         ASL A
D92E  38                         SEC 
D92F  E9 80                      SBC #$80     ;BRKABT?, MAXIOC?
D931  AE 80 05                   LDX LBUFF
D934  E0 30                      CPX #$30     ;ASCZER?, FLOPPY?
D936  F0 17                      BEQ $D94F
D938  AE 81 05                   LDX $0581
D93B  AC 82 05                   LDY $0582
D93E  8E 82 05                   STX $0582
D941  8C 81 05                   STY $0581
D944  A6 F2                      LDX CIX
D946  E0 02                      CPX #2       ;CBUFHI?, CTIMLO?, DIRECT?, LEDGE?, TEMPHI?
D948  D0 02                      BNE $D94C
D94A  E6 F2                      INC CIX
D94C  18                         CLC 
D94D  69 01                      ADC #1       ;APPEND?, DRETRI?, SUCCES?
D94F  85 ED                      STA EEXP
D951  A9 45                      LDA #$45     ;ERROR?, SCREDT?
D953  A4 F2                      LDY CIX
D955  20 9F DC                   JSR $DC9F
D958  84 F2                      STY CIX
D95A  A5 ED                      LDA EEXP
D95C  10 0B                      BPL $D969
D95E  A9 00                      LDA #0       ;B192HI?, CTIMHI?, RADON?, RIRGHI?, WIRGHI?
D960  38                         SEC 
D961  E5 ED                      SBC EEXP
D963  85 ED                      STA EEXP
D965  A9 2D                      LDA #$2D     
D967  D0 02                      BNE $D96B
D969  A9 2B                      LDA #$2B     
D96B  20 9F DC                   JSR $DC9F
D96E  A2 00                      LDX #0       ;B192HI?, CTIMHI?, RADON?, RIRGHI?, WIRGHI?
D970  A5 ED                      LDA EEXP
D972  38                         SEC 
D973  E9 0A                      SBC #$0A     ;RSIRG?
D975  90 03                      BCC $D97A
D977  E8                         INX 
D978  D0 F8                      BNE $D972
D97A  18                         CLC 
D97B  69 0A                      ADC #$0A     ;RSIRG?
D97D  48                         PHA 
D97E  8A                         TXA 
D97F  20 9D DC                   JSR $DC9D
D982  68                         PLA 
D983  09 80                      ORA #$80     ;BRKABT?, MAXIOC?
D985  20 9D DC                   JSR $DC9D
D988  AD 80 05                   LDA LBUFF
D98B  C9 30                      CMP #$30     ;ASCZER?, FLOPPY?
D98D  D0 0D                      BNE $D99C
D98F  18                         CLC 
D990  A5 F3                      LDA INBUFF
D992  69 01                      ADC #1       ;APPEND?, DRETRI?, SUCCES?
D994  85 F3                      STA INBUFF
D996  A5 F4                      LDA INBUFF+1
D998  69 00                      ADC #0       ;B192HI?, CTIMHI?, RADON?, RIRGHI?, WIRGHI?
D99A  85 F4                      STA INBUFF+1
D99C  A5 D4                      LDA FR0
D99E  10 09                      BPL $D9A9
D9A0  20 C1 DC                   JSR $DCC1
D9A3  A0 00                      LDY #0       ;B192HI?, CTIMHI?, RADON?, RIRGHI?, WIRGHI?
D9A5  A9 2D                      LDA #$2D     
D9A7  91 F3                      STA (INBUFF),Y
D9A9  60                         RTS 
D9AA  A5 D4     IFP              LDA FR0
D9AC  85 F8                      STA ZTEMP4+1
D9AE  A5 D5                      LDA FR0+1
D9B0  85 F7                      STA ZTEMP4
D9B2  20 44 DA                   JSR ZFR0
D9B5  F8                         SED 
D9B6  A0 10                      LDY #$10     ;IOCBSZ?, MXDMOD?
D9B8  06 F8                      ASL ZTEMP4+1
D9BA  26 F7                      ROL ZTEMP4
D9BC  A2 03                      LDX #3       ;OPEN?
D9BE  B5 D4                      LDA FR0,X
D9C0  75 D4                      ADC FR0,X
D9C2  95 D4                      STA FR0,X
D9C4  CA                         DEX 
D9C5  D0 F7                      BNE $D9BE
D9C7  88                         DEY 
D9C8  D0 EE                      BNE $D9B8
D9CA  D8                         CLD 
D9CB  A9 42                      LDA #$42     
D9CD  85 D4                      STA FR0
D9CF  4C 00 DC                   JMP $DC00
D9D2  A9 00     FPI              LDA #0       ;B192HI?, CTIMHI?, RADON?, RIRGHI?, WIRGHI?
D9D4  85 F7                      STA ZTEMP4
D9D6  85 F8                      STA ZTEMP4+1
D9D8  A5 D4                      LDA FR0
D9DA  30 66                      BMI $DA42
D9DC  C9 43                      CMP #$43     ;CASSET?, COMPLT?
D9DE  B0 62                      BCS $DA42
D9E0  38                         SEC 
D9E1  E9 40                      SBC #$40     
D9E3  90 3F                      BCC $DA24
D9E5  69 00                      ADC #0       ;B192HI?, CTIMHI?, RADON?, RIRGHI?, WIRGHI?
D9E7  0A                         ASL A
D9E8  85 F5                      STA ZTEMP1
D9EA  20 5A DA                   JSR $DA5A
D9ED  B0 53                      BCS $DA42
D9EF  A5 F7                      LDA ZTEMP4
D9F1  85 F9                      STA ZTEMP3
D9F3  A5 F8                      LDA ZTEMP4+1
D9F5  85 FA                      STA ZTEMP3+1
D9F7  20 5A DA                   JSR $DA5A
D9FA  B0 46                      BCS $DA42
D9FC  20 5A DA                   JSR $DA5A
D9FF  B0 41                      BCS $DA42
DA01  18                         CLC 
DA02  A5 F8                      LDA ZTEMP4+1
DA04  65 FA                      ADC ZTEMP3+1
DA06  85 F8                      STA ZTEMP4+1
DA08  A5 F7                      LDA ZTEMP4
DA0A  65 F9                      ADC ZTEMP3
DA0C  85 F7                      STA ZTEMP4
DA0E  B0 32                      BCS $DA42
DA10  20 B9 DC                   JSR $DCB9
DA13  18                         CLC 
DA14  65 F8                      ADC ZTEMP4+1
DA16  85 F8                      STA ZTEMP4+1
DA18  A5 F7                      LDA ZTEMP4
DA1A  69 00                      ADC #0       ;B192HI?, CTIMHI?, RADON?, RIRGHI?, WIRGHI?
DA1C  B0 24                      BCS $DA42
DA1E  85 F7                      STA ZTEMP4
DA20  C6 F5                      DEC ZTEMP1
DA22  D0 C6                      BNE $D9EA
DA24  20 B9 DC                   JSR $DCB9
DA27  C9 05                      CMP #5       ;B600HI?, GETREC?, HITONE?
DA29  90 0D                      BCC $DA38
DA2B  18                         CLC 
DA2C  A5 F8                      LDA ZTEMP4+1
DA2E  69 01                      ADC #1       ;APPEND?, DRETRI?, SUCCES?
DA30  85 F8                      STA ZTEMP4+1
DA32  A5 F7                      LDA ZTEMP4
DA34  69 00                      ADC #0       ;B192HI?, CTIMHI?, RADON?, RIRGHI?, WIRGHI?
DA36  85 F7                      STA ZTEMP4
DA38  A5 F8                      LDA ZTEMP4+1
DA3A  85 D4                      STA FR0
DA3C  A5 F7                      LDA ZTEMP4
DA3E  85 D5                      STA FR0+1
DA40  18                         CLC 
DA41  60                         RTS 
DA42  38                         SEC 
DA43  60                         RTS 
DA44  A2 D4     ZFR0             LDX #$D4     
DA46  A0 06     ZF1              LDY #6       ;DEGON?
DA48  A9 00                      LDA #0       ;B192HI?, CTIMHI?, RADON?, RIRGHI?, WIRGHI?
DA4A  95 00                      STA LINZBS,X
DA4C  E8                         INX 
DA4D  88                         DEY 
DA4E  D0 FA                      BNE $DA4A
DA50  60                         RTS 
DA51  A9 05                      LDA #5       ;B600HI?, GETREC?, HITONE?
DA53  85 F4                      STA INBUFF+1
DA55  A9 80                      LDA #$80     ;BRKABT?, MAXIOC?
DA57  85 F3                      STA INBUFF
DA59  60                         RTS 
DA5A  18                         CLC 
DA5B  26 F8                      ROL ZTEMP4+1
DA5D  26 F7                      ROL ZTEMP4
DA5F  60                         RTS 
DA60  A5 E0     FSUB             LDA FR1
DA62  49 80                      EOR #$80     ;BRKABT?, MAXIOC?
DA64  85 E0                      STA FR1
DA66  A5 E0     FADD             LDA FR1
DA68  29 7F                      AND #$7F     
DA6A  85 F7                      STA ZTEMP4
DA6C  A5 D4                      LDA FR0
DA6E  29 7F                      AND #$7F     
DA70  38                         SEC 
DA71  E5 F7                      SBC ZTEMP4
DA73  10 10                      BPL $DA85
DA75  A2 05                      LDX #5       ;B600HI?, GETREC?, HITONE?
DA77  B5 D4                      LDA FR0,X
DA79  B4 E0                      LDY FR1,X
DA7B  95 E0                      STA FR1,X
DA7D  98                         TYA 
DA7E  95 D4                      STA FR0,X
DA80  CA                         DEX 
DA81  10 F4                      BPL $DA77
DA83  30 E1                      BMI FADD
DA85  F0 07                      BEQ $DA8E
DA87  C9 05                      CMP #5       ;B600HI?, GETREC?, HITONE?
DA89  B0 19                      BCS $DAA4
DA8B  20 3E DC                   JSR $DC3E
DA8E  F8                         SED 
DA8F  A5 D4                      LDA FR0
DA91  45 E0                      EOR FR1
DA93  30 1E                      BMI $DAB3
DA95  A2 04                      LDX #4       ;OPNIN?
DA97  18                         CLC 
DA98  B5 D5                      LDA FR0+1,X
DA9A  75 E1                      ADC FR1+1,X
DA9C  95 D5                      STA FR0+1,X
DA9E  CA                         DEX 
DA9F  10 F7                      BPL $DA98
DAA1  D8                         CLD 
DAA2  B0 03                      BCS $DAA7
DAA4  4C 00 DC                   JMP $DC00
DAA7  A9 01                      LDA #1       ;APPEND?, DRETRI?, SUCCES?
DAA9  20 3A DC                   JSR $DC3A
DAAC  A9 01                      LDA #1       ;APPEND?, DRETRI?, SUCCES?
DAAE  85 D5                      STA FR0+1
DAB0  4C 00 DC                   JMP $DC00
DAB3  A2 04                      LDX #4       ;OPNIN?
DAB5  38                         SEC 
DAB6  B5 D5                      LDA FR0+1,X
DAB8  F5 E1                      SBC FR1+1,X
DABA  95 D5                      STA FR0+1,X
DABC  CA                         DEX 
DABD  10 F7                      BPL $DAB6
DABF  90 04                      BCC $DAC5
DAC1  D8                         CLD 
DAC2  4C 00 DC                   JMP $DC00
DAC5  A5 D4                      LDA FR0
DAC7  49 80                      EOR #$80     ;BRKABT?, MAXIOC?
DAC9  85 D4                      STA FR0
DACB  38                         SEC 
DACC  A2 04                      LDX #4       ;OPNIN?
DACE  A9 00                      LDA #0       ;B192HI?, CTIMHI?, RADON?, RIRGHI?, WIRGHI?
DAD0  F5 D5                      SBC FR0+1,X
DAD2  95 D5                      STA FR0+1,X
DAD4  CA                         DEX 
DAD5  10 F7                      BPL $DACE
DAD7  D8                         CLD 
DAD8  4C 00 DC                   JMP $DC00
DADB  A5 D4     FMUL             LDA FR0
DADD  F0 45                      BEQ $DB24
DADF  A5 E0                      LDA FR1
DAE1  F0 3E                      BEQ $DB21
DAE3  20 CF DC                   JSR $DCCF
DAE6  38                         SEC 
DAE7  E9 40                      SBC #$40     
DAE9  38                         SEC 
DAEA  65 E0                      ADC FR1
DAEC  30 38                      BMI $DB26
DAEE  20 E0 DC                   JSR $DCE0
DAF1  A5 DF                      LDA FRE+5
DAF3  29 0F                      AND #$0F     ;WSIRG?
DAF5  85 F6                      STA ZTEMP1+1
DAF7  C6 F6                      DEC ZTEMP1+1
DAF9  30 06                      BMI $DB01
DAFB  20 01 DD                   JSR $DD01
DAFE  4C F7 DA                   JMP $DAF7
DB01  A5 DF                      LDA FRE+5
DB03  4A                         LSR A
DB04  4A                         LSR A
DB05  4A                         LSR A
DB06  4A                         LSR A
DB07  85 F6                      STA ZTEMP1+1
DB09  C6 F6                      DEC ZTEMP1+1
DB0B  30 06                      BMI $DB13
DB0D  20 05 DD                   JSR $DD05
DB10  4C 09 DB                   JMP $DB09
DB13  20 62 DC                   JSR $DC62
DB16  C6 F5                      DEC ZTEMP1
DB18  D0 D7                      BNE $DAF1
DB1A  A5 ED                      LDA EEXP
DB1C  85 D4                      STA FR0
DB1E  4C 04 DC                   JMP $DC04
DB21  20 44 DA                   JSR ZFR0
DB24  18                         CLC 
DB25  60                         RTS 
DB26  38                         SEC 
DB27  60                         RTS 
DB28  A5 E0     FDIV             LDA FR1
DB2A  F0 FA                      BEQ $DB26
DB2C  A5 D4                      LDA FR0
DB2E  F0 F4                      BEQ $DB24
DB30  20 CF DC                   JSR $DCCF
DB33  38                         SEC 
DB34  E5 E0                      SBC FR1
DB36  18                         CLC 
DB37  69 40                      ADC #$40     
DB39  30 EB                      BMI $DB26
DB3B  20 E0 DC                   JSR $DCE0
DB3E  E6 F5                      INC ZTEMP1
DB40  4C 4E DB                   JMP $DB4E
DB43  A2 00                      LDX #0       ;B192HI?, CTIMHI?, RADON?, RIRGHI?, WIRGHI?
DB45  B5 D5                      LDA FR0+1,X
DB47  95 D4                      STA FR0,X
DB49  E8                         INX 
DB4A  E0 0C                      CPX #$0C     ;CLOSE?, OPNINO?
DB4C  D0 F7                      BNE $DB45
DB4E  A0 05                      LDY #5       ;B600HI?, GETREC?, HITONE?
DB50  38                         SEC 
DB51  F8                         SED 
DB52  B9 DA 00                   LDA FRE,Y
DB55  F9 E6 00                   SBC FR2,Y
DB58  99 DA 00                   STA FRE,Y
DB5B  88                         DEY 
DB5C  10 F4                      BPL $DB52
DB5E  D8                         CLD 
DB5F  90 04                      BCC $DB65
DB61  E6 D9                      INC FR0+5
DB63  D0 E9                      BNE $DB4E
DB65  20 0F DD                   JSR $DD0F
DB68  06 D9                      ASL FR0+5
DB6A  06 D9                      ASL FR0+5
DB6C  06 D9                      ASL FR0+5
DB6E  06 D9                      ASL FR0+5
DB70  A0 05                      LDY #5       ;B600HI?, GETREC?, HITONE?
DB72  38                         SEC 
DB73  F8                         SED 
DB74  B9 DA 00                   LDA FRE,Y
DB77  F9 E0 00                   SBC FR1,Y
DB7A  99 DA 00                   STA FRE,Y
DB7D  88                         DEY 
DB7E  10 F4                      BPL $DB74
DB80  D8                         CLD 
DB81  90 04                      BCC $DB87
DB83  E6 D9                      INC FR0+5
DB85  D0 E9                      BNE $DB70
DB87  20 09 DD                   JSR $DD09
DB8A  C6 F5                      DEC ZTEMP1
DB8C  D0 B5                      BNE $DB43
DB8E  20 62 DC                   JSR $DC62
DB91  4C 1A DB                   JMP $DB1A
DB94  20 AF DB                   JSR $DBAF
DB97  A4 F2                      LDY CIX
DB99  90 02                      BCC $DB9D
DB9B  B1 F3                      LDA (INBUFF),Y
DB9D  C8                         INY 
DB9E  84 F2                      STY CIX
DBA0  60                         RTS 
DBA1  A4 F2                      LDY CIX
DBA3  A9 20                      LDA #$20     ;INSCLR?, RENAME?
DBA5  D1 F3                      CMP (INBUFF),Y
DBA7  D0 03                      BNE $DBAC
DBA9  C8                         INY 
DBAA  D0 F9                      BNE $DBA5
DBAC  84 F2                      STY CIX
DBAE  60                         RTS 
DBAF  A4 F2                      LDY CIX
DBB1  B1 F3                      LDA (INBUFF),Y
DBB3  38                         SEC 
DBB4  E9 30                      SBC #$30     ;ASCZER?, FLOPPY?
DBB6  90 18                      BCC $DBD0
DBB8  C9 0A                      CMP #$0A     ;RSIRG?
DBBA  60                         RTS 
DBBB  A5 F2                      LDA CIX
DBBD  48                         PHA 
DBBE  20 94 DB                   JSR $DB94
DBC1  90 1F                      BCC $DBE2
DBC3  C9 2E                      CMP #$2E     
DBC5  F0 14                      BEQ $DBDB
DBC7  C9 2B                      CMP #$2B     
DBC9  F0 07                      BEQ $DBD2
DBCB  C9 2D                      CMP #$2D     
DBCD  F0 03                      BEQ $DBD2
DBCF  68                         PLA 
DBD0  38                         SEC 
DBD1  60                         RTS 
DBD2  20 94 DB                   JSR $DB94
DBD5  90 0B                      BCC $DBE2
DBD7  C9 2E                      CMP #$2E     
DBD9  D0 F4                      BNE $DBCF
DBDB  20 94 DB                   JSR $DB94
DBDE  90 02                      BCC $DBE2
DBE0  B0 ED                      BCS $DBCF
DBE2  68                         PLA 
DBE3  85 F2                      STA CIX
DBE5  18                         CLC 
DBE6  60                         RTS 
DBE7  A2 E7                      LDX #$E7     
DBE9  D0 02                      BNE $DBED
DBEB  A2 D5                      LDX #$D5     
DBED  A0 04                      LDY #4       ;OPNIN?
DBEF  18                         CLC 
DBF0  36 04                      ROL RAMLO,X
DBF2  36 03                      ROL CASINI+1,X
DBF4  36 02                      ROL CASINI,X
DBF6  36 01                      ROL LINZBS+1,X
DBF8  36 00                      ROL LINZBS,X
DBFA  26 EC                      ROL FRX
DBFC  88                         DEY 
DBFD  D0 F0                      BNE $DBEF
DBFF  60                         RTS 
DC00  A2 00                      LDX #0       ;B192HI?, CTIMHI?, RADON?, RIRGHI?, WIRGHI?
DC02  86 DA                      STX FRE
DC04  A2 04                      LDX #4       ;OPNIN?
DC06  A5 D4                      LDA FR0
DC08  F0 2E                      BEQ $DC38
DC0A  A5 D5                      LDA FR0+1
DC0C  D0 1A                      BNE $DC28
DC0E  A0 00                      LDY #0       ;B192HI?, CTIMHI?, RADON?, RIRGHI?, WIRGHI?
DC10  B9 D6 00                   LDA FR0+2,Y
DC13  99 D5 00                   STA FR0+1,Y
DC16  C8                         INY 
DC17  C0 05                      CPY #5       ;B600HI?, GETREC?, HITONE?
DC19  90 F5                      BCC $DC10
DC1B  C6 D4                      DEC FR0
DC1D  CA                         DEX 
DC1E  D0 EA                      BNE $DC0A
DC20  A5 D5                      LDA FR0+1
DC22  D0 04                      BNE $DC28
DC24  85 D4                      STA FR0
DC26  18                         CLC 
DC27  60                         RTS 
DC28  A5 D4                      LDA FR0
DC2A  29 7F                      AND #$7F     
DC2C  C9 71                      CMP #$71     
DC2E  90 01                      BCC $DC31
DC30  60                         RTS 
DC31  C9 0F                      CMP #$0F     ;WSIRG?
DC33  B0 03                      BCS $DC38
DC35  20 44 DA                   JSR ZFR0
DC38  18                         CLC 
DC39  60                         RTS 
DC3A  A2 D4                      LDX #$D4     
DC3C  D0 02                      BNE $DC40
DC3E  A2 E0                      LDX #$E0     
DC40  86 F9                      STX ZTEMP3
DC42  85 F7                      STA ZTEMP4
DC44  85 F8                      STA ZTEMP4+1
DC46  A0 04                      LDY #4       ;OPNIN?
DC48  B5 04                      LDA RAMLO,X
DC4A  95 05                      STA RAMLO+1,X
DC4C  CA                         DEX 
DC4D  88                         DEY 
DC4E  D0 F8                      BNE $DC48
DC50  A9 00                      LDA #0       ;B192HI?, CTIMHI?, RADON?, RIRGHI?, WIRGHI?
DC52  95 05                      STA RAMLO+1,X
DC54  A6 F9                      LDX ZTEMP3
DC56  C6 F7                      DEC ZTEMP4
DC58  D0 EC                      BNE $DC46
DC5A  B5 00                      LDA LINZBS,X
DC5C  18                         CLC 
DC5D  65 F8                      ADC ZTEMP4+1
DC5F  95 00                      STA LINZBS,X
DC61  60                         RTS 
DC62  A2 0A                      LDX #$0A     ;RSIRG?
DC64  B5 D4                      LDA FR0,X
DC66  95 D5                      STA FR0+1,X
DC68  CA                         DEX 
DC69  10 F9                      BPL $DC64
DC6B  A9 00                      LDA #0       ;B192HI?, CTIMHI?, RADON?, RIRGHI?, WIRGHI?
DC6D  85 D4                      STA FR0
DC6F  60                         RTS 
DC70  85 F7                      STA ZTEMP4
DC72  A2 00                      LDX #0       ;B192HI?, CTIMHI?, RADON?, RIRGHI?, WIRGHI?
DC74  A0 00                      LDY #0       ;B192HI?, CTIMHI?, RADON?, RIRGHI?, WIRGHI?
DC76  20 93 DC                   JSR $DC93
DC79  38                         SEC 
DC7A  E9 01                      SBC #1       ;APPEND?, DRETRI?, SUCCES?
DC7C  85 F7                      STA ZTEMP4
DC7E  B5 D5                      LDA FR0+1,X
DC80  4A                         LSR A
DC81  4A                         LSR A
DC82  4A                         LSR A
DC83  4A                         LSR A
DC84  20 9D DC                   JSR $DC9D
DC87  B5 D5                      LDA FR0+1,X
DC89  29 0F                      AND #$0F     ;WSIRG?
DC8B  20 9D DC                   JSR $DC9D
DC8E  E8                         INX 
DC8F  E0 05                      CPX #5       ;B600HI?, GETREC?, HITONE?
DC91  90 E3                      BCC $DC76
DC93  A5 F7                      LDA ZTEMP4
DC95  D0 05                      BNE $DC9C
DC97  A9 2E                      LDA #$2E     
DC99  20 9F DC                   JSR $DC9F
DC9C  60                         RTS 
DC9D  09 30                      ORA #$30     ;ASCZER?, FLOPPY?
DC9F  99 80 05                   STA LBUFF,Y
DCA2  C8                         INY 
DCA3  60                         RTS 
DCA4  A2 0A                      LDX #$0A     ;RSIRG?
DCA6  BD 80 05                   LDA LBUFF,X
DCA9  C9 2E                      CMP #$2E     
DCAB  F0 07                      BEQ $DCB4
DCAD  C9 30                      CMP #$30     ;ASCZER?, FLOPPY?
DCAF  D0 07                      BNE $DCB8
DCB1  CA                         DEX 
DCB2  D0 F2                      BNE $DCA6
DCB4  CA                         DEX 
DCB5  BD 80 05                   LDA LBUFF,X
DCB8  60                         RTS 
DCB9  20 EB DB                   JSR $DBEB
DCBC  A5 EC                      LDA FRX
DCBE  29 0F                      AND #$0F     ;WSIRG?
DCC0  60                         RTS 
DCC1  38                         SEC 
DCC2  A5 F3                      LDA INBUFF
DCC4  E9 01                      SBC #1       ;APPEND?, DRETRI?, SUCCES?
DCC6  85 F3                      STA INBUFF
DCC8  A5 F4                      LDA INBUFF+1
DCCA  E9 00                      SBC #0       ;B192HI?, CTIMHI?, RADON?, RIRGHI?, WIRGHI?
DCCC  85 F4                      STA INBUFF+1
DCCE  60                         RTS 
DCCF  A5 D4                      LDA FR0
DCD1  45 E0                      EOR FR1
DCD3  29 80                      AND #$80     ;BRKABT?, MAXIOC?
DCD5  85 EE                      STA NSIGN
DCD7  06 E0                      ASL FR1
DCD9  46 E0                      LSR FR1
DCDB  A5 D4                      LDA FR0
DCDD  29 7F                      AND #$7F     
DCDF  60                         RTS 
DCE0  05 EE                      ORA NSIGN
DCE2  85 ED                      STA EEXP
DCE4  A9 00                      LDA #0       ;B192HI?, CTIMHI?, RADON?, RIRGHI?, WIRGHI?
DCE6  85 D4                      STA FR0
DCE8  85 E0                      STA FR1
DCEA  20 28 DD                   JSR $DD28
DCED  20 E7 DB                   JSR $DBE7
DCF0  A5 EC                      LDA FRX
DCF2  29 0F                      AND #$0F     ;WSIRG?
DCF4  85 E6                      STA FR2
DCF6  A9 05                      LDA #5       ;B600HI?, GETREC?, HITONE?
DCF8  85 F5                      STA ZTEMP1
DCFA  20 34 DD                   JSR $DD34
DCFD  20 44 DA                   JSR ZFR0
DD00  60                         RTS 
DD01  A2 D9                      LDX #$D9     
DD03  D0 06                      BNE $DD0B
DD05  A2 D9                      LDX #$D9     
DD07  D0 08                      BNE $DD11
DD09  A2 DF                      LDX #$DF     
DD0B  A0 E5                      LDY #$E5     
DD0D  D0 04                      BNE $DD13
DD0F  A2 DF                      LDX #$DF     
DD11  A0 EB                      LDY #$EB     
DD13  A9 05                      LDA #5       ;B600HI?, GETREC?, HITONE?
DD15  85 F7                      STA ZTEMP4
DD17  18                         CLC 
DD18  F8                         SED 
DD19  B5 00                      LDA LINZBS,X
DD1B  79 00 00                   ADC LINZBS,Y
DD1E  95 00                      STA LINZBS,X
DD20  CA                         DEX 
DD21  88                         DEY 
DD22  C6 F7                      DEC ZTEMP4
DD24  10 F3                      BPL $DD19
DD26  D8                         CLD 
DD27  60                         RTS 
DD28  A0 05                      LDY #5       ;B600HI?, GETREC?, HITONE?
DD2A  B9 E0 00                   LDA FR1,Y
DD2D  99 E6 00                   STA FR2,Y
DD30  88                         DEY 
DD31  10 F7                      BPL $DD2A
DD33  60                         RTS 
DD34  A0 05                      LDY #5       ;B600HI?, GETREC?, HITONE?
DD36  B9 D4 00                   LDA FR0,Y
DD39  99 DA 00                   STA FRE,Y
DD3C  88                         DEY 
DD3D  10 F7                      BPL $DD36
DD3F  60                         RTS 
DD40  86 FE     PLYEVL           STX FPTR2
DD42  84 FF                      STY FPTR2+1
DD44  85 EF                      STA ESIGN
DD46  A2 E0                      LDX #$E0     
DD48  A0 05                      LDY #5       ;B600HI?, GETREC?, HITONE?
DD4A  20 A7 DD                   JSR FSTOR
DD4D  20 B6 DD                   JSR FMOVE
DD50  A6 FE                      LDX FPTR2
DD52  A4 FF                      LDY FPTR2+1
DD54  20 89 DD                   JSR FLD0R
DD57  C6 EF                      DEC ESIGN
DD59  F0 2D                      BEQ $DD88
DD5B  20 DB DA                   JSR FMUL
DD5E  B0 28                      BCS $DD88
DD60  18                         CLC 
DD61  A5 FE                      LDA FPTR2
DD63  69 06                      ADC #6       ;DEGON?
DD65  85 FE                      STA FPTR2
DD67  90 06                      BCC $DD6F
DD69  A5 FF                      LDA FPTR2+1
DD6B  69 00                      ADC #0       ;B192HI?, CTIMHI?, RADON?, RIRGHI?, WIRGHI?
DD6D  85 FF                      STA FPTR2+1
DD6F  A6 FE                      LDX FPTR2
DD71  A4 FF                      LDY FPTR2+1
DD73  20 98 DD                   JSR FLD1R
DD76  20 66 DA                   JSR FADD
DD79  B0 0D                      BCS $DD88
DD7B  C6 EF                      DEC ESIGN
DD7D  F0 09                      BEQ $DD88
DD7F  A2 E0                      LDX #$E0     
DD81  A0 05                      LDY #5       ;B600HI?, GETREC?, HITONE?
DD83  20 98 DD                   JSR FLD1R
DD86  30 D3                      BMI $DD5B
DD88  60                         RTS 
DD89  86 FC     FLD0R            STX FLPTR
DD8B  84 FD                      STY FLPTR+1
DD8D  A0 05     FLD0P            LDY #5       ;B600HI?, GETREC?, HITONE?
DD8F  B1 FC                      LDA (FLPTR),Y
DD91  99 D4 00                   STA FR0,Y
DD94  88                         DEY 
DD95  10 F8                      BPL $DD8F
DD97  60                         RTS 
DD98  86 FC     FLD1R            STX FLPTR
DD9A  84 FD                      STY FLPTR+1
DD9C  A0 05     FLD1P            LDY #5       ;B600HI?, GETREC?, HITONE?
DD9E  B1 FC                      LDA (FLPTR),Y
DDA0  99 E0 00                   STA FR1,Y
DDA3  88                         DEY 
DDA4  10 F8                      BPL $DD9E
DDA6  60                         RTS 
DDA7  86 FC     FSTOR            STX FLPTR
DDA9  84 FD                      STY FLPTR+1
DDAB  A0 05     FSTOP            LDY #5       ;B600HI?, GETREC?, HITONE?
DDAD  B9 D4 00                   LDA FR0,Y
DDB0  91 FC                      STA (FLPTR),Y
DDB2  88                         DEY 
DDB3  10 F8                      BPL $DDAD
DDB5  60                         RTS 
DDB6  A2 05     FMOVE            LDX #5       ;B600HI?, GETREC?, HITONE?
DDB8  B5 D4                      LDA FR0,X
DDBA  95 E0                      STA FR1,X
DDBC  CA                         DEX 
DDBD  10 F9                      BPL $DDB8
DDBF  60                         RTS 
DDC0  A2 89     EXP              LDX #$89     ;TRNRCD?
DDC2  A0 DE                      LDY #$DE     
DDC4  20 98 DD                   JSR FLD1R
DDC7  20 DB DA                   JSR FMUL
DDCA  B0 7F                      BCS $DE4B
DDCC  A9 00     EXP10            LDA #0       ;B192HI?, CTIMHI?, RADON?, RIRGHI?, WIRGHI?
DDCE  85 F1                      STA DIGRT
DDD0  A5 D4                      LDA FR0
DDD2  85 F0                      STA FCHRFLG
DDD4  29 7F                      AND #$7F     
DDD6  85 D4                      STA FR0
DDD8  38                         SEC 
DDD9  E9 40                      SBC #$40     
DDDB  30 26                      BMI $DE03
DDDD  C9 04                      CMP #4       ;OPNIN?
DDDF  10 6A                      BPL $DE4B
DDE1  A2 E6                      LDX #$E6     
DDE3  A0 05                      LDY #5       ;B600HI?, GETREC?, HITONE?
DDE5  20 A7 DD                   JSR FSTOR
DDE8  20 D2 D9                   JSR FPI
DDEB  A5 D4                      LDA FR0
DDED  85 F1                      STA DIGRT
DDEF  A5 D5                      LDA FR0+1
DDF1  D0 58                      BNE $DE4B
DDF3  20 AA D9                   JSR IFP
DDF6  20 B6 DD                   JSR FMOVE
DDF9  A2 E6                      LDX #$E6     
DDFB  A0 05                      LDY #5       ;B600HI?, GETREC?, HITONE?
DDFD  20 89 DD                   JSR FLD0R
DE00  20 60 DA                   JSR FSUB
DE03  A9 0A                      LDA #$0A     ;RSIRG?
DE05  A2 4D                      LDX #$4D     ;MODEM?
DE07  A0 DE                      LDY #$DE     
DE09  20 40 DD                   JSR PLYEVL
DE0C  20 B6 DD                   JSR FMOVE
DE0F  20 DB DA                   JSR FMUL
DE12  A5 F1                      LDA DIGRT
DE14  F0 23                      BEQ $DE39
DE16  18                         CLC 
DE17  6A                         ROR A
DE18  85 E0                      STA FR1
DE1A  A9 01                      LDA #1       ;APPEND?, DRETRI?, SUCCES?
DE1C  90 02                      BCC $DE20
DE1E  A9 10                      LDA #$10     ;IOCBSZ?, MXDMOD?
DE20  85 E1                      STA FR1+1
DE22  A2 04                      LDX #4       ;OPNIN?
DE24  A9 00                      LDA #0       ;B192HI?, CTIMHI?, RADON?, RIRGHI?, WIRGHI?
DE26  95 E2                      STA FR1+2,X
DE28  CA                         DEX 
DE29  10 FB                      BPL $DE26
DE2B  A5 E0                      LDA FR1
DE2D  18                         CLC 
DE2E  69 40                      ADC #$40     
DE30  B0 19                      BCS $DE4B
DE32  30 17                      BMI $DE4B
DE34  85 E0                      STA FR1
DE36  20 DB DA                   JSR FMUL
DE39  A5 F0                      LDA FCHRFLG
DE3B  10 0D                      BPL $DE4A
DE3D  20 B6 DD                   JSR FMOVE
DE40  A2 8F                      LDX #$8F     ;CHKERR?
DE42  A0 DE                      LDY #$DE     
DE44  20 89 DD                   JSR FLD0R
DE47  20 28 DB                   JSR FDIV
DE4A  60                         RTS 
DE4B  38                         SEC 
DE4C  60                         RTS 
DE4D  3D                         .BYTE $3D
DE4E  17                         .BYTE $17
DE4F  94                         .BYTE $94
DE50  19                         .BYTE $19
DE51  00                         .BYTE $00
DE52  00                         .BYTE $00
DE53  3D                         .BYTE $3D
DE54  57                         .BYTE $57
DE55  33                         .BYTE $33
DE56  05                         .BYTE $05
DE57  00                         .BYTE $00
DE58  00                         .BYTE $00
DE59  3E                         .BYTE $3E
DE5A  05                         .BYTE $05
DE5B  54                         .BYTE $54
DE5C  76                         .BYTE $76
DE5D  62                         .BYTE $62
DE5E  00                         .BYTE $00
DE5F  3E                         .BYTE $3E
DE60  32                         .BYTE $32
DE61  19                         .BYTE $19
DE62  62                         .BYTE $62
DE63  27                         .BYTE $27
DE64  00                         .BYTE $00
DE65  3F                         .BYTE $3F
DE66  01                         .BYTE $01
DE67  68                         .BYTE $68
DE68  60                         .BYTE $60
DE69  30                         .BYTE $30
DE6A  36                         .BYTE $36
DE6B  3F                         .BYTE $3F
DE6C  07                         .BYTE $07
DE6D  32                         .BYTE $32
DE6E  03                         .BYTE $03
DE6F  27                         .BYTE $27
DE70  41                         .BYTE $41
DE71  3F                         .BYTE $3F
DE72  25                         .BYTE $25
DE73  43                         .BYTE $43
DE74  34                         .BYTE $34
DE75  56                         .BYTE $56
DE76  75                         .BYTE $75
DE77  3F                         .BYTE $3F
DE78  66                         .BYTE $66
DE79  27                         .BYTE $27
DE7A  37                         .BYTE $37
DE7B  30                         .BYTE $30
DE7C  50                         .BYTE $50
DE7D  40                         .BYTE $40
DE7E  01                         .BYTE $01
DE7F  15                         .BYTE $15
DE80  12                         .BYTE $12
DE81  92                         .BYTE $92
DE82  55                         .BYTE $55
DE83  3F                         .BYTE $3F
DE84  99                         .BYTE $99
DE85  99                         .BYTE $99
DE86  99                         .BYTE $99
DE87  99                         .BYTE $99
DE88  99                         .BYTE $99
DE89  3F                         .BYTE $3F
DE8A  43                         .BYTE $43
DE8B  42                         .BYTE $42
DE8C  94                         .BYTE $94
DE8D  48                         .BYTE $48
DE8E  19                         .BYTE $19
DE8F  40                         .BYTE $40
DE90  01                         .BYTE $01
DE91  00                         .BYTE $00
DE92  00                         .BYTE $00
DE93  00                         .BYTE $00
DE94  00                         .BYTE $00
DE95  86 FE                      STX FPTR2
DE97  84 FF                      STY FPTR2+1
DE99  A2 E0                      LDX #$E0     
DE9B  A0 05                      LDY #5       ;B600HI?, GETREC?, HITONE?
DE9D  20 A7 DD                   JSR FSTOR
DEA0  A6 FE                      LDX FPTR2
DEA2  A4 FF                      LDY FPTR2+1
DEA4  20 98 DD                   JSR FLD1R
DEA7  20 66 DA                   JSR FADD
DEAA  A2 E6                      LDX #$E6     
DEAC  A0 05                      LDY #5       ;B600HI?, GETREC?, HITONE?
DEAE  20 A7 DD                   JSR FSTOR
DEB1  A2 E0                      LDX #$E0     
DEB3  A0 05                      LDY #5       ;B600HI?, GETREC?, HITONE?
DEB5  20 89 DD                   JSR FLD0R
DEB8  A6 FE                      LDX FPTR2
DEBA  A4 FF                      LDY FPTR2+1
DEBC  20 98 DD                   JSR FLD1R
DEBF  20 60 DA                   JSR FSUB
DEC2  A2 E6                      LDX #$E6     
DEC4  A0 05                      LDY #5       ;B600HI?, GETREC?, HITONE?
DEC6  20 98 DD                   JSR FLD1R
DEC9  20 28 DB                   JSR FDIV
DECC  60                         RTS 
DECD  A9 01     LOG              LDA #1       ;APPEND?, DRETRI?, SUCCES?
DECF  D0 02                      BNE $DED3
DED1  A9 00     LOG10            LDA #0       ;B192HI?, CTIMHI?, RADON?, RIRGHI?, WIRGHI?
DED3  85 F0                      STA FCHRFLG
DED5  A5 D4                      LDA FR0
DED7  10 02                      BPL $DEDB
DED9  38                         SEC 
DEDA  60                         RTS 
DEDB  A5 D4                      LDA FR0
DEDD  85 E0                      STA FR1
DEDF  38                         SEC 
DEE0  E9 40                      SBC #$40     
DEE2  0A                         ASL A
DEE3  85 F1                      STA DIGRT
DEE5  A5 D5                      LDA FR0+1
DEE7  29 F0                      AND #$F0     
DEE9  D0 04                      BNE $DEEF
DEEB  A9 01                      LDA #1       ;APPEND?, DRETRI?, SUCCES?
DEED  D0 04                      BNE $DEF3
DEEF  E6 F1                      INC DIGRT
DEF1  A9 10                      LDA #$10     ;IOCBSZ?, MXDMOD?
DEF3  85 E1                      STA FR1+1
DEF5  A2 04                      LDX #4       ;OPNIN?
DEF7  A9 00                      LDA #0       ;B192HI?, CTIMHI?, RADON?, RIRGHI?, WIRGHI?
DEF9  95 E2                      STA FR1+2,X
DEFB  CA                         DEX 
DEFC  10 FB                      BPL $DEF9
DEFE  20 28 DB                   JSR FDIV
DF01  A2 66                      LDX #$66     
DF03  A0 DF                      LDY #$DF     
DF05  20 95 DE                   JSR $DE95
DF08  A2 E6                      LDX #$E6     
DF0A  A0 05                      LDY #5       ;B600HI?, GETREC?, HITONE?
DF0C  20 A7 DD                   JSR FSTOR
DF0F  20 B6 DD                   JSR FMOVE
DF12  20 DB DA                   JSR FMUL
DF15  A9 0A                      LDA #$0A     ;RSIRG?
DF17  A2 72                      LDX #$72     
DF19  A0 DF                      LDY #$DF     
DF1B  20 40 DD                   JSR PLYEVL
DF1E  A2 E6                      LDX #$E6     
DF20  A0 05                      LDY #5       ;B600HI?, GETREC?, HITONE?
DF22  20 98 DD                   JSR FLD1R
DF25  20 DB DA                   JSR FMUL
DF28  A2 6C                      LDX #$6C     
DF2A  A0 DF                      LDY #$DF     
DF2C  20 98 DD                   JSR FLD1R
DF2F  20 66 DA                   JSR FADD
DF32  20 B6 DD                   JSR FMOVE
DF35  A9 00                      LDA #0       ;B192HI?, CTIMHI?, RADON?, RIRGHI?, WIRGHI?
DF37  85 D5                      STA FR0+1
DF39  A5 F1                      LDA DIGRT
DF3B  85 D4                      STA FR0
DF3D  10 07                      BPL $DF46
DF3F  49 FF                      EOR #$FF     ;IOCFRE?
DF41  18                         CLC 
DF42  69 01                      ADC #1       ;APPEND?, DRETRI?, SUCCES?
DF44  85 D4                      STA FR0
DF46  20 AA D9                   JSR IFP
DF49  24 F1                      BIT DIGRT
DF4B  10 06                      BPL $DF53
DF4D  A9 80                      LDA #$80     ;BRKABT?, MAXIOC?
DF4F  05 D4                      ORA FR0
DF51  85 D4                      STA FR0
DF53  20 66 DA                   JSR FADD
DF56  A5 F0                      LDA FCHRFLG
DF58  F0 0A                      BEQ $DF64
DF5A  A2 89                      LDX #$89     ;TRNRCD?
DF5C  A0 DE                      LDY #$DE     
DF5E  20 98 DD                   JSR FLD1R
DF61  20 28 DB                   JSR FDIV
DF64  18                         CLC 
DF65  60                         RTS 
DF66  40                         .BYTE $40
DF67  03                         .BYTE $03
DF68  16                         .BYTE $16
DF69  22                         .BYTE $22
DF6A  77                         .BYTE $77
DF6B  66                         .BYTE $66
DF6C  3F                         .BYTE $3F
DF6D  50                         .BYTE $50
DF6E  00                         .BYTE $00
DF6F  00                         .BYTE $00
DF70  00                         .BYTE $00
DF71  00                         .BYTE $00
DF72  3F                         .BYTE $3F
DF73  49                         .BYTE $49
DF74  15                         .BYTE $15
DF75  57                         .BYTE $57
DF76  11                         .BYTE $11
DF77  08                         .BYTE $08
DF78  BF                         .BYTE $BF
DF79  51                         .BYTE $51
DF7A  70                         .BYTE $70
DF7B  49                         .BYTE $49
DF7C  47                         .BYTE $47
DF7D  08                         .BYTE $08
DF7E  3F                         .BYTE $3F
DF7F  39                         .BYTE $39
DF80  20                         .BYTE $20
DF81  57                         .BYTE $57
DF82  61                         .BYTE $61
DF83  95                         .BYTE $95
DF84  BF                         .BYTE $BF
DF85  04                         .BYTE $04
DF86  39                         .BYTE $39
DF87  63                         .BYTE $63
DF88  03                         .BYTE $03
DF89  55                         .BYTE $55
DF8A  3F                         .BYTE $3F
DF8B  10                         .BYTE $10
DF8C  09                         .BYTE $09
DF8D  30                         .BYTE $30
DF8E  12                         .BYTE $12
DF8F  64                         .BYTE $64
DF90  3F                         .BYTE $3F
DF91  09                         .BYTE $09
DF92  39                         .BYTE $39
DF93  08                         .BYTE $08
DF94  04                         .BYTE $04
DF95  60                         .BYTE $60
DF96  3F                         .BYTE $3F
DF97  12                         .BYTE $12
DF98  42                         .BYTE $42
DF99  58                         .BYTE $58
DF9A  47                         .BYTE $47
DF9B  42                         .BYTE $42
DF9C  3F                         .BYTE $3F
DF9D  17                         .BYTE $17
DF9E  37                         .BYTE $37
DF9F  12                         .BYTE $12
DFA0  06                         .BYTE $06
DFA1  08                         .BYTE $08
DFA2  3F                         .BYTE $3F
DFA3  28                         .BYTE $28
DFA4  95                         .BYTE $95
DFA5  29                         .BYTE $29
DFA6  71                         .BYTE $71
DFA7  17                         .BYTE $17
DFA8  3F                         .BYTE $3F
DFA9  86                         .BYTE $86
DFAA  85                         .BYTE $85
DFAB  88                         .BYTE $88
DFAC  96                         .BYTE $96
DFAD  44                         .BYTE $44
DFAE  3E                         .BYTE $3E
DFAF  16                         .BYTE $16
DFB0  05                         .BYTE $05
DFB1  44                         .BYTE $44
DFB2  49                         .BYTE $49
DFB3  00                         .BYTE $00
DFB4  BE                         .BYTE $BE
DFB5  95                         .BYTE $95
DFB6  68                         .BYTE $68
DFB7  38                         .BYTE $38
DFB8  45                         .BYTE $45
DFB9  00                         .BYTE $00
DFBA  3F                         .BYTE $3F
DFBB  02                         .BYTE $02
DFBC  68                         .BYTE $68
DFBD  79                         .BYTE $79
DFBE  94                         .BYTE $94
DFBF  16                         .BYTE $16
DFC0  BF                         .BYTE $BF
DFC1  04                         .BYTE $04
DFC2  92                         .BYTE $92
DFC3  78                         .BYTE $78
DFC4  90                         .BYTE $90
DFC5  80                         .BYTE $80
DFC6  3F                         .BYTE $3F
DFC7  07                         .BYTE $07
DFC8  03                         .BYTE $03
DFC9  15                         .BYTE $15
DFCA  20                         .BYTE $20
DFCB  00                         .BYTE $00
DFCC  BF                         .BYTE $BF
DFCD  08                         .BYTE $08
DFCE  92                         .BYTE $92
DFCF  29                         .BYTE $29
DFD0  12                         .BYTE $12
DFD1  44                         .BYTE $44
DFD2  3F                         .BYTE $3F
DFD3  11                         .BYTE $11
DFD4  08                         .BYTE $08
DFD5  40                         .BYTE $40
DFD6  09                         .BYTE $09
DFD7  11                         .BYTE $11
DFD8  BF                         .BYTE $BF
DFD9  14                         .BYTE $14
DFDA  28                         .BYTE $28
DFDB  31                         .BYTE $31
DFDC  56                         .BYTE $56
DFDD  04                         .BYTE $04
DFDE  3F                         .BYTE $3F
DFDF  19                         .BYTE $19
DFE0  99                         .BYTE $99
DFE1  98                         .BYTE $98
DFE2  77                         .BYTE $77
DFE3  44                         .BYTE $44
DFE4  BF                         .BYTE $BF
DFE5  33                         .BYTE $33
DFE6  33                         .BYTE $33
DFE7  33                         .BYTE $33
DFE8  31                         .BYTE $31
DFE9  13                         .BYTE $13
DFEA  3F                         .BYTE $3F
DFEB  99                         .BYTE $99
DFEC  99                         .BYTE $99
DFED  99                         .BYTE $99
DFEE  99                         .BYTE $99
DFEF  99                         .BYTE $99
DFF0  3F                         .BYTE $3F
DFF1  78                         .BYTE $78
DFF2  53                         .BYTE $53
DFF3  98                         .BYTE $98
DFF4  16                         .BYTE $16
DFF5  34                         .BYTE $34
DFF6  98                         .BYTE $98
DFF7  16                         .BYTE $16
DFF8  34                         .BYTE $34
DFF9  FC                         .BYTE $FC
DFFA  E0                         .BYTE $E0
DFFB  32                         .BYTE $32
DFFC  50                         .BYTE $50
DFFD  D9                         .BYTE $D9
DFFE  68                         .BYTE $68
DFFF  11                         .BYTE $11
E000  00                         .BYTE $00
E001  00                         .BYTE $00
E002  00                         .BYTE $00
E003  00                         .BYTE $00
E004  00                         .BYTE $00
E005  00                         .BYTE $00
E006  00                         .BYTE $00
E007  00                         .BYTE $00
E008  00                         .BYTE $00
E009  18                         .BYTE $18
E00A  18                         .BYTE $18
E00B  18                         .BYTE $18
E00C  18                         .BYTE $18
E00D  00                         .BYTE $00
E00E  18                         .BYTE $18
E00F  00                         .BYTE $00
E010  00                         .BYTE $00
E011  66                         .BYTE $66
E012  66                         .BYTE $66
E013  66                         .BYTE $66
E014  00                         .BYTE $00
E015  00                         .BYTE $00
E016  00                         .BYTE $00
E017  00                         .BYTE $00
E018  00                         .BYTE $00
E019  66                         .BYTE $66
E01A  FF                         .BYTE $FF
E01B  66                         .BYTE $66
E01C  66                         .BYTE $66
E01D  FF                         .BYTE $FF
E01E  66                         .BYTE $66
E01F  00                         .BYTE $00
E020  18                         .BYTE $18
E021  3E                         .BYTE $3E
E022  60                         .BYTE $60
E023  3C                         .BYTE $3C
E024  06                         .BYTE $06
E025  7C                         .BYTE $7C
E026  18                         .BYTE $18
E027  00                         .BYTE $00
E028  00                         .BYTE $00
E029  66                         .BYTE $66
E02A  6C                         .BYTE $6C
E02B  18                         .BYTE $18
E02C  30                         .BYTE $30
E02D  66                         .BYTE $66
E02E  46                         .BYTE $46
E02F  00                         .BYTE $00
E030  1C                         .BYTE $1C
E031  36                         .BYTE $36
E032  1C                         .BYTE $1C
E033  38                         .BYTE $38
E034  6F                         .BYTE $6F
E035  66                         .BYTE $66
E036  3B                         .BYTE $3B
E037  00                         .BYTE $00
E038  00                         .BYTE $00
E039  18                         .BYTE $18
E03A  18                         .BYTE $18
E03B  18                         .BYTE $18
E03C  00                         .BYTE $00
E03D  00                         .BYTE $00
E03E  00                         .BYTE $00
E03F  00                         .BYTE $00
E040  00                         .BYTE $00
E041  0E                         .BYTE $0E
E042  1C                         .BYTE $1C
E043  18                         .BYTE $18
E044  18                         .BYTE $18
E045  1C                         .BYTE $1C
E046  0E                         .BYTE $0E
E047  00                         .BYTE $00
E048  00                         .BYTE $00
E049  70                         .BYTE $70
E04A  38                         .BYTE $38
E04B  18                         .BYTE $18
E04C  18                         .BYTE $18
E04D  38                         .BYTE $38
E04E  70                         .BYTE $70
E04F  00                         .BYTE $00
E050  00                         .BYTE $00
E051  66                         .BYTE $66
E052  3C                         .BYTE $3C
E053  FF                         .BYTE $FF
E054  3C                         .BYTE $3C
E055  66                         .BYTE $66
E056  00                         .BYTE $00
E057  00                         .BYTE $00
E058  00                         .BYTE $00
E059  18                         .BYTE $18
E05A  18                         .BYTE $18
E05B  7E                         .BYTE $7E
E05C  18                         .BYTE $18
E05D  18                         .BYTE $18
E05E  00                         .BYTE $00
E05F  00                         .BYTE $00
E060  00                         .BYTE $00
E061  00                         .BYTE $00
E062  00                         .BYTE $00
E063  00                         .BYTE $00
E064  00                         .BYTE $00
E065  18                         .BYTE $18
E066  18                         .BYTE $18
E067  30                         .BYTE $30
E068  00                         .BYTE $00
E069  00                         .BYTE $00
E06A  00                         .BYTE $00
E06B  7E                         .BYTE $7E
E06C  00                         .BYTE $00
E06D  00                         .BYTE $00
E06E  00                         .BYTE $00
E06F  00                         .BYTE $00
E070  00                         .BYTE $00
E071  00                         .BYTE $00
E072  00                         .BYTE $00
E073  00                         .BYTE $00
E074  00                         .BYTE $00
E075  18                         .BYTE $18
E076  18                         .BYTE $18
E077  00                         .BYTE $00
E078  00                         .BYTE $00
E079  06                         .BYTE $06
E07A  0C                         .BYTE $0C
E07B  18                         .BYTE $18
E07C  30                         .BYTE $30
E07D  60                         .BYTE $60
E07E  40                         .BYTE $40
E07F  00                         .BYTE $00
E080  00                         .BYTE $00
E081  3C                         .BYTE $3C
E082  66                         .BYTE $66
E083  6E                         .BYTE $6E
E084  76                         .BYTE $76
E085  66                         .BYTE $66
E086  3C                         .BYTE $3C
E087  00                         .BYTE $00
E088  00                         .BYTE $00
E089  18                         .BYTE $18
E08A  38                         .BYTE $38
E08B  18                         .BYTE $18
E08C  18                         .BYTE $18
E08D  18                         .BYTE $18
E08E  7E                         .BYTE $7E
E08F  00                         .BYTE $00
E090  00                         .BYTE $00
E091  3C                         .BYTE $3C
E092  66                         .BYTE $66
E093  0C                         .BYTE $0C
E094  18                         .BYTE $18
E095  30                         .BYTE $30
E096  7E                         .BYTE $7E
E097  00                         .BYTE $00
E098  00                         .BYTE $00
E099  7E                         .BYTE $7E
E09A  0C                         .BYTE $0C
E09B  18                         .BYTE $18
E09C  0C                         .BYTE $0C
E09D  66                         .BYTE $66
E09E  3C                         .BYTE $3C
E09F  00                         .BYTE $00
E0A0  00                         .BYTE $00
E0A1  0C                         .BYTE $0C
E0A2  1C                         .BYTE $1C
E0A3  3C                         .BYTE $3C
E0A4  6C                         .BYTE $6C
E0A5  7E                         .BYTE $7E
E0A6  0C                         .BYTE $0C
E0A7  00                         .BYTE $00
E0A8  00                         .BYTE $00
E0A9  7E                         .BYTE $7E
E0AA  60                         .BYTE $60
E0AB  7C                         .BYTE $7C
E0AC  06                         .BYTE $06
E0AD  66                         .BYTE $66
E0AE  3C                         .BYTE $3C
E0AF  00                         .BYTE $00
E0B0  00                         .BYTE $00
E0B1  3C                         .BYTE $3C
E0B2  60                         .BYTE $60
E0B3  7C                         .BYTE $7C
E0B4  66                         .BYTE $66
E0B5  66                         .BYTE $66
E0B6  3C                         .BYTE $3C
E0B7  00                         .BYTE $00
E0B8  00                         .BYTE $00
E0B9  7E                         .BYTE $7E
E0BA  06                         .BYTE $06
E0BB  0C                         .BYTE $0C
E0BC  18                         .BYTE $18
E0BD  30                         .BYTE $30
E0BE  30                         .BYTE $30
E0BF  00                         .BYTE $00
E0C0  00                         .BYTE $00
E0C1  3C                         .BYTE $3C
E0C2  66                         .BYTE $66
E0C3  3C                         .BYTE $3C
E0C4  66                         .BYTE $66
E0C5  66                         .BYTE $66
E0C6  3C                         .BYTE $3C
E0C7  00                         .BYTE $00
E0C8  00                         .BYTE $00
E0C9  3C                         .BYTE $3C
E0CA  66                         .BYTE $66
E0CB  3E                         .BYTE $3E
E0CC  06                         .BYTE $06
E0CD  0C                         .BYTE $0C
E0CE  38                         .BYTE $38
E0CF  00                         .BYTE $00
E0D0  00                         .BYTE $00
E0D1  00                         .BYTE $00
E0D2  18                         .BYTE $18
E0D3  18                         .BYTE $18
E0D4  00                         .BYTE $00
E0D5  18                         .BYTE $18
E0D6  18                         .BYTE $18
E0D7  00                         .BYTE $00
E0D8  00                         .BYTE $00
E0D9  00                         .BYTE $00
E0DA  18                         .BYTE $18
E0DB  18                         .BYTE $18
E0DC  00                         .BYTE $00
E0DD  18                         .BYTE $18
E0DE  18                         .BYTE $18
E0DF  30                         .BYTE $30
E0E0  06                         .BYTE $06
E0E1  0C                         .BYTE $0C
E0E2  18                         .BYTE $18
E0E3  30                         .BYTE $30
E0E4  18                         .BYTE $18
E0E5  0C                         .BYTE $0C
E0E6  06                         .BYTE $06
E0E7  00                         .BYTE $00
E0E8  00                         .BYTE $00
E0E9  00                         .BYTE $00
E0EA  7E                         .BYTE $7E
E0EB  00                         .BYTE $00
E0EC  00                         .BYTE $00
E0ED  7E                         .BYTE $7E
E0EE  00                         .BYTE $00
E0EF  00                         .BYTE $00
E0F0  60                         .BYTE $60
E0F1  30                         .BYTE $30
E0F2  18                         .BYTE $18
E0F3  0C                         .BYTE $0C
E0F4  18                         .BYTE $18
E0F5  30                         .BYTE $30
E0F6  60                         .BYTE $60
E0F7  00                         .BYTE $00
E0F8  00                         .BYTE $00
E0F9  3C                         .BYTE $3C
E0FA  66                         .BYTE $66
E0FB  0C                         .BYTE $0C
E0FC  18                         .BYTE $18
E0FD  00                         .BYTE $00
E0FE  18                         .BYTE $18
E0FF  00                         .BYTE $00
E100  00                         .BYTE $00
E101  3C                         .BYTE $3C
E102  66                         .BYTE $66
E103  6E                         .BYTE $6E
E104  6E                         .BYTE $6E
E105  60                         .BYTE $60
E106  3E                         .BYTE $3E
E107  00                         .BYTE $00
E108  00                         .BYTE $00
E109  18                         .BYTE $18
E10A  3C                         .BYTE $3C
E10B  66                         .BYTE $66
E10C  66                         .BYTE $66
E10D  7E                         .BYTE $7E
E10E  66                         .BYTE $66
E10F  00                         .BYTE $00
E110  00                         .BYTE $00
E111  7C                         .BYTE $7C
E112  66                         .BYTE $66
E113  7C                         .BYTE $7C
E114  66                         .BYTE $66
E115  66                         .BYTE $66
E116  7C                         .BYTE $7C
E117  00                         .BYTE $00
E118  00                         .BYTE $00
E119  3C                         .BYTE $3C
E11A  66                         .BYTE $66
E11B  60                         .BYTE $60
E11C  60                         .BYTE $60
E11D  66                         .BYTE $66
E11E  3C                         .BYTE $3C
E11F  00                         .BYTE $00
E120  00                         .BYTE $00
E121  78                         .BYTE $78
E122  6C                         .BYTE $6C
E123  66                         .BYTE $66
E124  66                         .BYTE $66
E125  6C                         .BYTE $6C
E126  78                         .BYTE $78
E127  00                         .BYTE $00
E128  00                         .BYTE $00
E129  7E                         .BYTE $7E
E12A  60                         .BYTE $60
E12B  7C                         .BYTE $7C
E12C  60                         .BYTE $60
E12D  60                         .BYTE $60
E12E  7E                         .BYTE $7E
E12F  00                         .BYTE $00
E130  00                         .BYTE $00
E131  7E                         .BYTE $7E
E132  60                         .BYTE $60
E133  7C                         .BYTE $7C
E134  60                         .BYTE $60
E135  60                         .BYTE $60
E136  60                         .BYTE $60
E137  00                         .BYTE $00
E138  00                         .BYTE $00
E139  3E                         .BYTE $3E
E13A  60                         .BYTE $60
E13B  60                         .BYTE $60
E13C  6E                         .BYTE $6E
E13D  66                         .BYTE $66
E13E  3E                         .BYTE $3E
E13F  00                         .BYTE $00
E140  00                         .BYTE $00
E141  66                         .BYTE $66
E142  66                         .BYTE $66
E143  7E                         .BYTE $7E
E144  66                         .BYTE $66
E145  66                         .BYTE $66
E146  66                         .BYTE $66
E147  00                         .BYTE $00
E148  00                         .BYTE $00
E149  7E                         .BYTE $7E
E14A  18                         .BYTE $18
E14B  18                         .BYTE $18
E14C  18                         .BYTE $18
E14D  18                         .BYTE $18
E14E  7E                         .BYTE $7E
E14F  00                         .BYTE $00
E150  00                         .BYTE $00
E151  06                         .BYTE $06
E152  06                         .BYTE $06
E153  06                         .BYTE $06
E154  06                         .BYTE $06
E155  66                         .BYTE $66
E156  3C                         .BYTE $3C
E157  00                         .BYTE $00
E158  00                         .BYTE $00
E159  66                         .BYTE $66
E15A  6C                         .BYTE $6C
E15B  78                         .BYTE $78
E15C  78                         .BYTE $78
E15D  6C                         .BYTE $6C
E15E  66                         .BYTE $66
E15F  00                         .BYTE $00
E160  00                         .BYTE $00
E161  60                         .BYTE $60
E162  60                         .BYTE $60
E163  60                         .BYTE $60
E164  60                         .BYTE $60
E165  60                         .BYTE $60
E166  7E                         .BYTE $7E
E167  00                         .BYTE $00
E168  00                         .BYTE $00
E169  63                         .BYTE $63
E16A  77                         .BYTE $77
E16B  7F                         .BYTE $7F
E16C  6B                         .BYTE $6B
E16D  63                         .BYTE $63
E16E  63                         .BYTE $63
E16F  00                         .BYTE $00
E170  00                         .BYTE $00
E171  66                         .BYTE $66
E172  76                         .BYTE $76
E173  7E                         .BYTE $7E
E174  7E                         .BYTE $7E
E175  6E                         .BYTE $6E
E176  66                         .BYTE $66
E177  00                         .BYTE $00
E178  00                         .BYTE $00
E179  3C                         .BYTE $3C
E17A  66                         .BYTE $66
E17B  66                         .BYTE $66
E17C  66                         .BYTE $66
E17D  66                         .BYTE $66
E17E  3C                         .BYTE $3C
E17F  00                         .BYTE $00
E180  00                         .BYTE $00
E181  7C                         .BYTE $7C
E182  66                         .BYTE $66
E183  66                         .BYTE $66
E184  7C                         .BYTE $7C
E185  60                         .BYTE $60
E186  60                         .BYTE $60
E187  00                         .BYTE $00
E188  00                         .BYTE $00
E189  3C                         .BYTE $3C
E18A  66                         .BYTE $66
E18B  66                         .BYTE $66
E18C  66                         .BYTE $66
E18D  6C                         .BYTE $6C
E18E  36                         .BYTE $36
E18F  00                         .BYTE $00
E190  00                         .BYTE $00
E191  7C                         .BYTE $7C
E192  66                         .BYTE $66
E193  66                         .BYTE $66
E194  7C                         .BYTE $7C
E195  6C                         .BYTE $6C
E196  66                         .BYTE $66
E197  00                         .BYTE $00
E198  00                         .BYTE $00
E199  3C                         .BYTE $3C
E19A  60                         .BYTE $60
E19B  3C                         .BYTE $3C
E19C  06                         .BYTE $06
E19D  06                         .BYTE $06
E19E  3C                         .BYTE $3C
E19F  00                         .BYTE $00
E1A0  00                         .BYTE $00
E1A1  7E                         .BYTE $7E
E1A2  18                         .BYTE $18
E1A3  18                         .BYTE $18
E1A4  18                         .BYTE $18
E1A5  18                         .BYTE $18
E1A6  18                         .BYTE $18
E1A7  00                         .BYTE $00
E1A8  00                         .BYTE $00
E1A9  66                         .BYTE $66
E1AA  66                         .BYTE $66
E1AB  66                         .BYTE $66
E1AC  66                         .BYTE $66
E1AD  66                         .BYTE $66
E1AE  7E                         .BYTE $7E
E1AF  00                         .BYTE $00
E1B0  00                         .BYTE $00
E1B1  66                         .BYTE $66
E1B2  66                         .BYTE $66
E1B3  66                         .BYTE $66
E1B4  66                         .BYTE $66
E1B5  3C                         .BYTE $3C
E1B6  18                         .BYTE $18
E1B7  00                         .BYTE $00
E1B8  00                         .BYTE $00
E1B9  63                         .BYTE $63
E1BA  63                         .BYTE $63
E1BB  6B                         .BYTE $6B
E1BC  7F                         .BYTE $7F
E1BD  77                         .BYTE $77
E1BE  63                         .BYTE $63
E1BF  00                         .BYTE $00
E1C0  00                         .BYTE $00
E1C1  66                         .BYTE $66
E1C2  66                         .BYTE $66
E1C3  3C                         .BYTE $3C
E1C4  3C                         .BYTE $3C
E1C5  66                         .BYTE $66
E1C6  66                         .BYTE $66
E1C7  00                         .BYTE $00
E1C8  00                         .BYTE $00
E1C9  66                         .BYTE $66
E1CA  66                         .BYTE $66
E1CB  3C                         .BYTE $3C
E1CC  18                         .BYTE $18
E1CD  18                         .BYTE $18
E1CE  18                         .BYTE $18
E1CF  00                         .BYTE $00
E1D0  00                         .BYTE $00
E1D1  7E                         .BYTE $7E
E1D2  0C                         .BYTE $0C
E1D3  18                         .BYTE $18
E1D4  30                         .BYTE $30
E1D5  60                         .BYTE $60
E1D6  7E                         .BYTE $7E
E1D7  00                         .BYTE $00
E1D8  00                         .BYTE $00
E1D9  1E                         .BYTE $1E
E1DA  18                         .BYTE $18
E1DB  18                         .BYTE $18
E1DC  18                         .BYTE $18
E1DD  18                         .BYTE $18
E1DE  1E                         .BYTE $1E
E1DF  00                         .BYTE $00
E1E0  00                         .BYTE $00
E1E1  40                         .BYTE $40
E1E2  60                         .BYTE $60
E1E3  30                         .BYTE $30
E1E4  18                         .BYTE $18
E1E5  0C                         .BYTE $0C
E1E6  06                         .BYTE $06
E1E7  00                         .BYTE $00
E1E8  00                         .BYTE $00
E1E9  78                         .BYTE $78
E1EA  18                         .BYTE $18
E1EB  18                         .BYTE $18
E1EC  18                         .BYTE $18
E1ED  18                         .BYTE $18
E1EE  78                         .BYTE $78
E1EF  00                         .BYTE $00
E1F0  00                         .BYTE $00
E1F1  08                         .BYTE $08
E1F2  1C                         .BYTE $1C
E1F3  36                         .BYTE $36
E1F4  63                         .BYTE $63
E1F5  00                         .BYTE $00
E1F6  00                         .BYTE $00
E1F7  00                         .BYTE $00
E1F8  00                         .BYTE $00
E1F9  00                         .BYTE $00
E1FA  00                         .BYTE $00
E1FB  00                         .BYTE $00
E1FC  00                         .BYTE $00
E1FD  00                         .BYTE $00
E1FE  FF                         .BYTE $FF
E1FF  00                         .BYTE $00
E200  00                         .BYTE $00
E201  36                         .BYTE $36
E202  7F                         .BYTE $7F
E203  7F                         .BYTE $7F
E204  3E                         .BYTE $3E
E205  1C                         .BYTE $1C
E206  08                         .BYTE $08
E207  00                         .BYTE $00
E208  18                         .BYTE $18
E209  18                         .BYTE $18
E20A  18                         .BYTE $18
E20B  1F                         .BYTE $1F
E20C  1F                         .BYTE $1F
E20D  18                         .BYTE $18
E20E  18                         .BYTE $18
E20F  18                         .BYTE $18
E210  03                         .BYTE $03
E211  03                         .BYTE $03
E212  03                         .BYTE $03
E213  03                         .BYTE $03
E214  03                         .BYTE $03
E215  03                         .BYTE $03
E216  03                         .BYTE $03
E217  03                         .BYTE $03
E218  18                         .BYTE $18
E219  18                         .BYTE $18
E21A  18                         .BYTE $18
E21B  F8                         .BYTE $F8
E21C  F8                         .BYTE $F8
E21D  00                         .BYTE $00
E21E  00                         .BYTE $00
E21F  00                         .BYTE $00
E220  18                         .BYTE $18
E221  18                         .BYTE $18
E222  18                         .BYTE $18
E223  F8                         .BYTE $F8
E224  F8                         .BYTE $F8
E225  18                         .BYTE $18
E226  18                         .BYTE $18
E227  18                         .BYTE $18
E228  00                         .BYTE $00
E229  00                         .BYTE $00
E22A  00                         .BYTE $00
E22B  F8                         .BYTE $F8
E22C  F8                         .BYTE $F8
E22D  18                         .BYTE $18
E22E  18                         .BYTE $18
E22F  18                         .BYTE $18
E230  03                         .BYTE $03
E231  07                         .BYTE $07
E232  0E                         .BYTE $0E
E233  1C                         .BYTE $1C
E234  38                         .BYTE $38
E235  70                         .BYTE $70
E236  E0                         .BYTE $E0
E237  C0                         .BYTE $C0
E238  C0                         .BYTE $C0
E239  E0                         .BYTE $E0
E23A  70                         .BYTE $70
E23B  38                         .BYTE $38
E23C  1C                         .BYTE $1C
E23D  0E                         .BYTE $0E
E23E  07                         .BYTE $07
E23F  03                         .BYTE $03
E240  01                         .BYTE $01
E241  03                         .BYTE $03
E242  07                         .BYTE $07
E243  0F                         .BYTE $0F
E244  1F                         .BYTE $1F
E245  3F                         .BYTE $3F
E246  7F                         .BYTE $7F
E247  FF                         .BYTE $FF
E248  00                         .BYTE $00
E249  00                         .BYTE $00
E24A  00                         .BYTE $00
E24B  00                         .BYTE $00
E24C  0F                         .BYTE $0F
E24D  0F                         .BYTE $0F
E24E  0F                         .BYTE $0F
E24F  0F                         .BYTE $0F
E250  80                         .BYTE $80
E251  C0                         .BYTE $C0
E252  E0                         .BYTE $E0
E253  F0                         .BYTE $F0
E254  F8                         .BYTE $F8
E255  FC                         .BYTE $FC
E256  FE                         .BYTE $FE
E257  FF                         .BYTE $FF
E258  0F                         .BYTE $0F
E259  0F                         .BYTE $0F
E25A  0F                         .BYTE $0F
E25B  0F                         .BYTE $0F
E25C  00                         .BYTE $00
E25D  00                         .BYTE $00
E25E  00                         .BYTE $00
E25F  00                         .BYTE $00
E260  F0                         .BYTE $F0
E261  F0                         .BYTE $F0
E262  F0                         .BYTE $F0
E263  F0                         .BYTE $F0
E264  00                         .BYTE $00
E265  00                         .BYTE $00
E266  00                         .BYTE $00
E267  00                         .BYTE $00
E268  FF                         .BYTE $FF
E269  FF                         .BYTE $FF
E26A  00                         .BYTE $00
E26B  00                         .BYTE $00
E26C  00                         .BYTE $00
E26D  00                         .BYTE $00
E26E  00                         .BYTE $00
E26F  00                         .BYTE $00
E270  00                         .BYTE $00
E271  00                         .BYTE $00
E272  00                         .BYTE $00
E273  00                         .BYTE $00
E274  00                         .BYTE $00
E275  00                         .BYTE $00
E276  FF                         .BYTE $FF
E277  FF                         .BYTE $FF
E278  00                         .BYTE $00
E279  00                         .BYTE $00
E27A  00                         .BYTE $00
E27B  00                         .BYTE $00
E27C  F0                         .BYTE $F0
E27D  F0                         .BYTE $F0
E27E  F0                         .BYTE $F0
E27F  F0                         .BYTE $F0
E280  00                         .BYTE $00
E281  1C                         .BYTE $1C
E282  1C                         .BYTE $1C
E283  77                         .BYTE $77
E284  77                         .BYTE $77
E285  08                         .BYTE $08
E286  1C                         .BYTE $1C
E287  00                         .BYTE $00
E288  00                         .BYTE $00
E289  00                         .BYTE $00
E28A  00                         .BYTE $00
E28B  1F                         .BYTE $1F
E28C  1F                         .BYTE $1F
E28D  18                         .BYTE $18
E28E  18                         .BYTE $18
E28F  18                         .BYTE $18
E290  00                         .BYTE $00
E291  00                         .BYTE $00
E292  00                         .BYTE $00
E293  FF                         .BYTE $FF
E294  FF                         .BYTE $FF
E295  00                         .BYTE $00
E296  00                         .BYTE $00
E297  00                         .BYTE $00
E298  18                         .BYTE $18
E299  18                         .BYTE $18
E29A  18                         .BYTE $18
E29B  FF                         .BYTE $FF
E29C  FF                         .BYTE $FF
E29D  18                         .BYTE $18
E29E  18                         .BYTE $18
E29F  18                         .BYTE $18
E2A0  00                         .BYTE $00
E2A1  00                         .BYTE $00
E2A2  3C                         .BYTE $3C
E2A3  7E                         .BYTE $7E
E2A4  7E                         .BYTE $7E
E2A5  7E                         .BYTE $7E
E2A6  3C                         .BYTE $3C
E2A7  00                         .BYTE $00
E2A8  00                         .BYTE $00
E2A9  00                         .BYTE $00
E2AA  00                         .BYTE $00
E2AB  00                         .BYTE $00
E2AC  FF                         .BYTE $FF
E2AD  FF                         .BYTE $FF
E2AE  FF                         .BYTE $FF
E2AF  FF                         .BYTE $FF
E2B0  C0                         .BYTE $C0
E2B1  C0                         .BYTE $C0
E2B2  C0                         .BYTE $C0
E2B3  C0                         .BYTE $C0
E2B4  C0                         .BYTE $C0
E2B5  C0                         .BYTE $C0
E2B6  C0                         .BYTE $C0
E2B7  C0                         .BYTE $C0
E2B8  00                         .BYTE $00
E2B9  00                         .BYTE $00
E2BA  00                         .BYTE $00
E2BB  FF                         .BYTE $FF
E2BC  FF                         .BYTE $FF
E2BD  18                         .BYTE $18
E2BE  18                         .BYTE $18
E2BF  18                         .BYTE $18
E2C0  18                         .BYTE $18
E2C1  18                         .BYTE $18
E2C2  18                         .BYTE $18
E2C3  FF                         .BYTE $FF
E2C4  FF                         .BYTE $FF
E2C5  00                         .BYTE $00
E2C6  00                         .BYTE $00
E2C7  00                         .BYTE $00
E2C8  F0                         .BYTE $F0
E2C9  F0                         .BYTE $F0
E2CA  F0                         .BYTE $F0
E2CB  F0                         .BYTE $F0
E2CC  F0                         .BYTE $F0
E2CD  F0                         .BYTE $F0
E2CE  F0                         .BYTE $F0
E2CF  F0                         .BYTE $F0
E2D0  18                         .BYTE $18
E2D1  18                         .BYTE $18
E2D2  18                         .BYTE $18
E2D3  1F                         .BYTE $1F
E2D4  1F                         .BYTE $1F
E2D5  00                         .BYTE $00
E2D6  00                         .BYTE $00
E2D7  00                         .BYTE $00
E2D8  78                         .BYTE $78
E2D9  60                         .BYTE $60
E2DA  78                         .BYTE $78
E2DB  60                         .BYTE $60
E2DC  7E                         .BYTE $7E
E2DD  18                         .BYTE $18
E2DE  1E                         .BYTE $1E
E2DF  00                         .BYTE $00
E2E0  00                         .BYTE $00
E2E1  18                         .BYTE $18
E2E2  3C                         .BYTE $3C
E2E3  7E                         .BYTE $7E
E2E4  18                         .BYTE $18
E2E5  18                         .BYTE $18
E2E6  18                         .BYTE $18
E2E7  00                         .BYTE $00
E2E8  00                         .BYTE $00
E2E9  18                         .BYTE $18
E2EA  18                         .BYTE $18
E2EB  18                         .BYTE $18
E2EC  7E                         .BYTE $7E
E2ED  3C                         .BYTE $3C
E2EE  18                         .BYTE $18
E2EF  00                         .BYTE $00
E2F0  00                         .BYTE $00
E2F1  18                         .BYTE $18
E2F2  30                         .BYTE $30
E2F3  7E                         .BYTE $7E
E2F4  30                         .BYTE $30
E2F5  18                         .BYTE $18
E2F6  00                         .BYTE $00
E2F7  00                         .BYTE $00
E2F8  00                         .BYTE $00
E2F9  18                         .BYTE $18
E2FA  0C                         .BYTE $0C
E2FB  7E                         .BYTE $7E
E2FC  0C                         .BYTE $0C
E2FD  18                         .BYTE $18
E2FE  00                         .BYTE $00
E2FF  00                         .BYTE $00
E300  00                         .BYTE $00
E301  18                         .BYTE $18
E302  3C                         .BYTE $3C
E303  7E                         .BYTE $7E
E304  7E                         .BYTE $7E
E305  3C                         .BYTE $3C
E306  18                         .BYTE $18
E307  00                         .BYTE $00
E308  00                         .BYTE $00
E309  00                         .BYTE $00
E30A  3C                         .BYTE $3C
E30B  06                         .BYTE $06
E30C  3E                         .BYTE $3E
E30D  66                         .BYTE $66
E30E  3E                         .BYTE $3E
E30F  00                         .BYTE $00
E310  00                         .BYTE $00
E311  60                         .BYTE $60
E312  60                         .BYTE $60
E313  7C                         .BYTE $7C
E314  66                         .BYTE $66
E315  66                         .BYTE $66
E316  7C                         .BYTE $7C
E317  00                         .BYTE $00
E318  00                         .BYTE $00
E319  00                         .BYTE $00
E31A  3C                         .BYTE $3C
E31B  60                         .BYTE $60
E31C  60                         .BYTE $60
E31D  60                         .BYTE $60
E31E  3C                         .BYTE $3C
E31F  00                         .BYTE $00
E320  00                         .BYTE $00
E321  06                         .BYTE $06
E322  06                         .BYTE $06
E323  3E                         .BYTE $3E
E324  66                         .BYTE $66
E325  66                         .BYTE $66
E326  3E                         .BYTE $3E
E327  00                         .BYTE $00
E328  00                         .BYTE $00
E329  00                         .BYTE $00
E32A  3C                         .BYTE $3C
E32B  66                         .BYTE $66
E32C  7E                         .BYTE $7E
E32D  60                         .BYTE $60
E32E  3C                         .BYTE $3C
E32F  00                         .BYTE $00
E330  00                         .BYTE $00
E331  0E                         .BYTE $0E
E332  18                         .BYTE $18
E333  3E                         .BYTE $3E
E334  18                         .BYTE $18
E335  18                         .BYTE $18
E336  18                         .BYTE $18
E337  00                         .BYTE $00
E338  00                         .BYTE $00
E339  00                         .BYTE $00
E33A  3E                         .BYTE $3E
E33B  66                         .BYTE $66
E33C  66                         .BYTE $66
E33D  3E                         .BYTE $3E
E33E  06                         .BYTE $06
E33F  7C                         .BYTE $7C
E340  00                         .BYTE $00
E341  60                         .BYTE $60
E342  60                         .BYTE $60
E343  7C                         .BYTE $7C
E344  66                         .BYTE $66
E345  66                         .BYTE $66
E346  66                         .BYTE $66
E347  00                         .BYTE $00
E348  00                         .BYTE $00
E349  18                         .BYTE $18
E34A  00                         .BYTE $00
E34B  38                         .BYTE $38
E34C  18                         .BYTE $18
E34D  18                         .BYTE $18
E34E  3C                         .BYTE $3C
E34F  00                         .BYTE $00
E350  00                         .BYTE $00
E351  06                         .BYTE $06
E352  00                         .BYTE $00
E353  06                         .BYTE $06
E354  06                         .BYTE $06
E355  06                         .BYTE $06
E356  06                         .BYTE $06
E357  3C                         .BYTE $3C
E358  00                         .BYTE $00
E359  60                         .BYTE $60
E35A  60                         .BYTE $60
E35B  6C                         .BYTE $6C
E35C  78                         .BYTE $78
E35D  6C                         .BYTE $6C
E35E  66                         .BYTE $66
E35F  00                         .BYTE $00
E360  00                         .BYTE $00
E361  38                         .BYTE $38
E362  18                         .BYTE $18
E363  18                         .BYTE $18
E364  18                         .BYTE $18
E365  18                         .BYTE $18
E366  3C                         .BYTE $3C
E367  00                         .BYTE $00
E368  00                         .BYTE $00
E369  00                         .BYTE $00
E36A  66                         .BYTE $66
E36B  7F                         .BYTE $7F
E36C  7F                         .BYTE $7F
E36D  6B                         .BYTE $6B
E36E  63                         .BYTE $63
E36F  00                         .BYTE $00
E370  00                         .BYTE $00
E371  00                         .BYTE $00
E372  7C                         .BYTE $7C
E373  66                         .BYTE $66
E374  66                         .BYTE $66
E375  66                         .BYTE $66
E376  66                         .BYTE $66
E377  00                         .BYTE $00
E378  00                         .BYTE $00
E379  00                         .BYTE $00
E37A  3C                         .BYTE $3C
E37B  66                         .BYTE $66
E37C  66                         .BYTE $66
E37D  66                         .BYTE $66
E37E  3C                         .BYTE $3C
E37F  00                         .BYTE $00
E380  00                         .BYTE $00
E381  00                         .BYTE $00
E382  7C                         .BYTE $7C
E383  66                         .BYTE $66
E384  66                         .BYTE $66
E385  7C                         .BYTE $7C
E386  60                         .BYTE $60
E387  60                         .BYTE $60
E388  00                         .BYTE $00
E389  00                         .BYTE $00
E38A  3E                         .BYTE $3E
E38B  66                         .BYTE $66
E38C  66                         .BYTE $66
E38D  3E                         .BYTE $3E
E38E  06                         .BYTE $06
E38F  06                         .BYTE $06
E390  00                         .BYTE $00
E391  00                         .BYTE $00
E392  7C                         .BYTE $7C
E393  66                         .BYTE $66
E394  60                         .BYTE $60
E395  60                         .BYTE $60
E396  60                         .BYTE $60
E397  00                         .BYTE $00
E398  00                         .BYTE $00
E399  00                         .BYTE $00
E39A  3E                         .BYTE $3E
E39B  60                         .BYTE $60
E39C  3C                         .BYTE $3C
E39D  06                         .BYTE $06
E39E  7C                         .BYTE $7C
E39F  00                         .BYTE $00
E3A0  00                         .BYTE $00
E3A1  18                         .BYTE $18
E3A2  7E                         .BYTE $7E
E3A3  18                         .BYTE $18
E3A4  18                         .BYTE $18
E3A5  18                         .BYTE $18
E3A6  0E                         .BYTE $0E
E3A7  00                         .BYTE $00
E3A8  00                         .BYTE $00
E3A9  00                         .BYTE $00
E3AA  66                         .BYTE $66
E3AB  66                         .BYTE $66
E3AC  66                         .BYTE $66
E3AD  66                         .BYTE $66
E3AE  3E                         .BYTE $3E
E3AF  00                         .BYTE $00
E3B0  00                         .BYTE $00
E3B1  00                         .BYTE $00
E3B2  66                         .BYTE $66
E3B3  66                         .BYTE $66
E3B4  66                         .BYTE $66
E3B5  3C                         .BYTE $3C
E3B6  18                         .BYTE $18
E3B7  00                         .BYTE $00
E3B8  00                         .BYTE $00
E3B9  00                         .BYTE $00
E3BA  63                         .BYTE $63
E3BB  6B                         .BYTE $6B
E3BC  7F                         .BYTE $7F
E3BD  3E                         .BYTE $3E
E3BE  36                         .BYTE $36
E3BF  00                         .BYTE $00
E3C0  00                         .BYTE $00
E3C1  00                         .BYTE $00
E3C2  66                         .BYTE $66
E3C3  3C                         .BYTE $3C
E3C4  18                         .BYTE $18
E3C5  3C                         .BYTE $3C
E3C6  66                         .BYTE $66
E3C7  00                         .BYTE $00
E3C8  00                         .BYTE $00
E3C9  00                         .BYTE $00
E3CA  66                         .BYTE $66
E3CB  66                         .BYTE $66
E3CC  66                         .BYTE $66
E3CD  3E                         .BYTE $3E
E3CE  0C                         .BYTE $0C
E3CF  78                         .BYTE $78
E3D0  00                         .BYTE $00
E3D1  00                         .BYTE $00
E3D2  7E                         .BYTE $7E
E3D3  0C                         .BYTE $0C
E3D4  18                         .BYTE $18
E3D5  30                         .BYTE $30
E3D6  7E                         .BYTE $7E
E3D7  00                         .BYTE $00
E3D8  00                         .BYTE $00
E3D9  18                         .BYTE $18
E3DA  3C                         .BYTE $3C
E3DB  7E                         .BYTE $7E
E3DC  7E                         .BYTE $7E
E3DD  18                         .BYTE $18
E3DE  3C                         .BYTE $3C
E3DF  00                         .BYTE $00
E3E0  18                         .BYTE $18
E3E1  18                         .BYTE $18
E3E2  18                         .BYTE $18
E3E3  18                         .BYTE $18
E3E4  18                         .BYTE $18
E3E5  18                         .BYTE $18
E3E6  18                         .BYTE $18
E3E7  18                         .BYTE $18
E3E8  00                         .BYTE $00
E3E9  7E                         .BYTE $7E
E3EA  78                         .BYTE $78
E3EB  7C                         .BYTE $7C
E3EC  6E                         .BYTE $6E
E3ED  66                         .BYTE $66
E3EE  06                         .BYTE $06
E3EF  00                         .BYTE $00
E3F0  08                         .BYTE $08
E3F1  18                         .BYTE $18
E3F2  38                         .BYTE $38
E3F3  78                         .BYTE $78
E3F4  38                         .BYTE $38
E3F5  18                         .BYTE $18
E3F6  08                         .BYTE $08
E3F7  00                         .BYTE $00
E3F8  10                         .BYTE $10
E3F9  18                         .BYTE $18
E3FA  1C                         .BYTE $1C
E3FB  1E                         .BYTE $1E
E3FC  1C                         .BYTE $1C
E3FD  18                         .BYTE $18
E3FE  10                         .BYTE $10
E3FF  00                         .BYTE $00
E400  FB        EDITRV           .BYTE $FB
E401  F3                         .BYTE $F3
E402  33                         .BYTE $33
E403  F6                         .BYTE $F6
E404  3D                         .BYTE $3D
E405  F6                         .BYTE $F6
E406  A3                         .BYTE $A3
E407  F6                         .BYTE $F6
E408  33                         .BYTE $33
E409  F6                         .BYTE $F6
E40A  3C                         .BYTE $3C
E40B  F6                         .BYTE $F6
E40C  4C E4 F3                   JMP KBDORG
E40F  F9                         .BYTE $F9
E410  F5        SCRENV           .BYTE $F5
E411  F3                         .BYTE $F3
E412  33                         .BYTE $33
E413  F6                         .BYTE $F6
E414  92                         .BYTE $92
E415  F5                         .BYTE $F5
E416  B6                         .BYTE $B6
E417  F5                         .BYTE $F5
E418  33                         .BYTE $33
E419  F6                         .BYTE $F6
E41A  FB                         .BYTE $FB
E41B  FC                         .BYTE $FC
E41C  4C E4 F3                   JMP KBDORG
E41F  F6                         .BYTE $F6
E420  33        KEYBDV           .BYTE $33
E421  F6                         .BYTE $F6
E422  33                         .BYTE $33
E423  F6                         .BYTE $F6
E424  E1                         .BYTE $E1
E425  F6                         .BYTE $F6
E426  3C                         .BYTE $3C
E427  F6                         .BYTE $F6
E428  33                         .BYTE $33
E429  F6                         .BYTE $F6
E42A  3C                         .BYTE $3C
E42B  F6                         .BYTE $F6
E42C  4C E4 F3                   JMP KBDORG
E42F  00                         .BYTE $00
E430  9E        PRINTV           .BYTE $9E
E431  EE                         .BYTE $EE
E432  DB                         .BYTE $DB
E433  EE                         .BYTE $EE
E434  9D                         .BYTE $9D
E435  EE                         .BYTE $EE
E436  A6                         .BYTE $A6
E437  EE                         .BYTE $EE
E438  80                         .BYTE $80
E439  EE                         .BYTE $EE
E43A  9D                         .BYTE $9D
E43B  EE                         .BYTE $EE
E43C  4C 78 EE                   JMP PRNORG
E43F  00                         .BYTE $00
E440  4B        CASETV           .BYTE $4B
E441  EF                         .BYTE $EF
E442  2A                         .BYTE $2A
E443  F0                         .BYTE $F0
E444  D5                         .BYTE $D5
E445  EF                         .BYTE $EF
E446  0F                         .BYTE $0F
E447  F0                         .BYTE $F0
E448  27                         .BYTE $27
E449  F0                         .BYTE $F0
E44A  4A                         .BYTE $4A
E44B  EF                         .BYTE $EF
E44C  4C 41 EF                   JMP CASORG
E44F  00                         .BYTE $00
E450  4C EA ED  DISKIV           JMP DSKORG
E453  4C F0 ED  DSKINV           JMP $EDF0
E456  4C C4 E4  CIOV             JMP $E4C4
E459  4C 59 E9  SIOV             JMP $E959
E45C  4C 12 E9  SETVBV           JMP SETVBL
E45F  4C D1 E7  SYSVBV           JMP SYSVBL
E462  4C 3E E9  XITVBV           JMP $E93E
E465  4C 44 E9  SIOINV           JMP SIOORG
E468  4C F6 EB  SENDEV           JMP $EBF6
E46B  4C D5 E6  INTINV           JMP INTORG
E46E  4C A6 E4  CIOINV           JMP CIOINT
E471  4C 23 F2  BLKVDV           JMP $F223
E474  4C 1B F1  WARMSV           JMP RESET
E477  4C 25 F1  COLDSV           JMP PWRUP
E47A  4C E9 EF  RBLOKV           JMP $EFE9
E47D  4C 5D EF  CSOPIV           JMP $EF5D
E480  B3        VCTABL           .BYTE $B3
E481  E7                         .BYTE $E7
E482  B2                         .BYTE $B2
E483  E7                         .BYTE $E7
E484  B2                         .BYTE $B2
E485  E7                         .BYTE $E7
E486  B2                         .BYTE $B2
E487  E7                         .BYTE $E7
E488  BE                         .BYTE $BE
E489  FF                         .BYTE $FF
E48A  11                         .BYTE $11
E48B  EB                         .BYTE $EB
E48C  90                         .BYTE $90
E48D  EA                         .BYTE $EA
E48E  D1                         .BYTE $D1
E48F  EA                         .BYTE $EA
E490  B2                         .BYTE $B2
E491  E7                         .BYTE $E7
E492  B2                         .BYTE $B2
E493  E7                         .BYTE $E7
E494  B2                         .BYTE $B2
E495  E7                         .BYTE $E7
E496  F6                         .BYTE $F6
E497  E6                         .BYTE $E6
E498  00                         .BYTE $00
E499  00                         .BYTE $00
E49A  00                         .BYTE $00
E49B  00                         .BYTE $00
E49C  00                         .BYTE $00
E49D  00                         .BYTE $00
E49E  00                         .BYTE $00
E49F  00                         .BYTE $00
E4A0  00                         .BYTE $00
E4A1  00                         .BYTE $00
E4A2  D1                         .BYTE $D1
E4A3  E7                         .BYTE $E7
E4A4  3E                         .BYTE $3E
E4A5  E9                         .BYTE $E9
E4A6  A2 00     CIOINT           LDX #0       ;B192HI?, CTIMHI?, RADON?, RIRGHI?, WIRGHI?
E4A8  A9 FF                      LDA #$FF     ;IOCFRE?
E4AA  9D 40 03                   STA ICHID,X
E4AD  A9 C0                      LDA #$C0     
E4AF  9D 46 03                   STA ICPTL,X
E4B2  A9 E4                      LDA #$E4     
E4B4  9D 47 03                   STA ICPTH,X
E4B7  8A                         TXA 
E4B8  18                         CLC 
E4B9  69 10                      ADC #$10     ;IOCBSZ?, MXDMOD?
E4BB  AA                         TAX 
E4BC  C9 80                      CMP #$80     ;BRKABT?, MAXIOC?
E4BE  90 E8                      BCC $E4A8
E4C0  60                         RTS 
E4C1  A0 85                      LDY #$85     ;NOTOPN?
E4C3  60                         RTS 
E4C4  85 2F                      STA CIOCHR
E4C6  86 2E                      STX ICIDNO
E4C8  8A                         TXA 
E4C9  29 0F                      AND #$0F     ;WSIRG?
E4CB  D0 04                      BNE $E4D1
E4CD  E0 80                      CPX #$80     ;BRKABT?, MAXIOC?
E4CF  90 05                      BCC $E4D6
E4D1  A0 86                      LDY #$86     ;BADIOC?
E4D3  4C 1B E6                   JMP $E61B
E4D6  A0 00                      LDY #0       ;B192HI?, CTIMHI?, RADON?, RIRGHI?, WIRGHI?
E4D8  BD 40 03                   LDA ICHID,X
E4DB  99 20 00                   STA ICHIDZ,Y
E4DE  E8                         INX 
E4DF  C8                         INY 
E4E0  C0 0C                      CPY #$0C     ;CLOSE?, OPNINO?
E4E2  90 F4                      BCC $E4D8
E4E4  A0 84                      LDY #$84     ;NVALID?
E4E6  A5 22                      LDA ICCOMZ
E4E8  C9 03                      CMP #3       ;OPEN?
E4EA  90 25                      BCC $E511
E4EC  A8                         TAY 
E4ED  C0 0E                      CPY #$0E     ;SPECIL?
E4EF  90 02                      BCC $E4F3
E4F1  A0 0E                      LDY #$0E     ;SPECIL?
E4F3  84 17                      STY ICCOMT
E4F5  B9 C6 E6                   LDA $E6C6,Y
E4F8  F0 0F                      BEQ $E509
E4FA  C9 02                      CMP #2       ;CBUFHI?, CTIMLO?, DIRECT?, LEDGE?, TEMPHI?
E4FC  F0 35                      BEQ $E533
E4FE  C9 08                      CMP #8       ;OPNOT?
E500  B0 4C                      BCS $E54E
E502  C9 04                      CMP #4       ;OPNIN?
E504  F0 63                      BEQ CIREAD
E506  4C C9 E5                   JMP $E5C9
E509  A5 20                      LDA ICHIDZ
E50B  C9 FF                      CMP #$FF     ;IOCFRE?
E50D  F0 05                      BEQ $E514
E50F  A0 81                      LDY #$81     ;PRVOPN?
E511  4C 1B E6                   JMP $E61B
E514  20 9E E6                   JSR $E69E
E517  B0 F8                      BCS $E511
E519  20 3D E6                   JSR $E63D
E51C  B0 F3                      BCS $E511
E51E  20 89 E6                   JSR $E689
E521  A9 0B                      LDA #$0B     ;PUTCHR?
E523  85 17                      STA ICCOMT
E525  20 3D E6                   JSR $E63D
E528  A5 2C                      LDA ICSPRZ
E52A  85 26                      STA ICPTLZ
E52C  A5 2D                      LDA ICSPRZ+1
E52E  85 27                      STA ICPTHZ
E530  4C 1D E6                   JMP $E61D
E533  A0 01                      LDY #1       ;APPEND?, DRETRI?, SUCCES?
E535  84 23                      STY ICSTAZ
E537  20 3D E6                   JSR $E63D
E53A  B0 03                      BCS $E53F
E53C  20 89 E6                   JSR $E689
E53F  A9 FF                      LDA #$FF     ;IOCFRE?
E541  85 20                      STA ICHIDZ
E543  A9 E4                      LDA #$E4     
E545  85 27                      STA ICPTHZ
E547  A9 C0                      LDA #$C0     
E549  85 26                      STA ICPTLZ
E54B  4C 1D E6                   JMP $E61D
E54E  A5 20                      LDA ICHIDZ
E550  C9 FF                      CMP #$FF     ;IOCFRE?
E552  D0 05                      BNE $E559
E554  20 9E E6                   JSR $E69E
E557  B0 B8                      BCS $E511
E559  20 3D E6                   JSR $E63D
E55C  20 89 E6                   JSR $E689
E55F  A6 2E                      LDX ICIDNO
E561  BD 40 03                   LDA ICHID,X
E564  85 20                      STA ICHIDZ
E566  4C 1D E6                   JMP $E61D
E569  A5 22     CIREAD           LDA ICCOMZ
E56B  25 2A                      AND ICAX1Z
E56D  D0 05                      BNE $E574
E56F  A0 83                      LDY #$83     ;WRONLY?
E571  4C 1B E6                   JMP $E61B
E574  20 3D E6                   JSR $E63D
E577  B0 F8                      BCS $E571
E579  A5 28                      LDA ICBLLZ
E57B  05 29                      ORA ICBLHZ
E57D  D0 08                      BNE $E587
E57F  20 89 E6                   JSR $E689
E582  85 2F                      STA CIOCHR
E584  4C 1D E6                   JMP $E61D
E587  20 89 E6                   JSR $E689
E58A  85 2F                      STA CIOCHR
E58C  30 35                      BMI $E5C3
E58E  A0 00                      LDY #0       ;B192HI?, CTIMHI?, RADON?, RIRGHI?, WIRGHI?
E590  91 24                      STA (ICBALZ),Y
E592  20 70 E6                   JSR $E670
E595  A5 22                      LDA ICCOMZ
E597  29 02                      AND #2       ;CBUFHI?, CTIMLO?, DIRECT?, LEDGE?, TEMPHI?
E599  D0 0C                      BNE $E5A7
E59B  A5 2F                      LDA CIOCHR
E59D  C9 9B                      CMP #$9B     ;CR?, EOL?
E59F  D0 06                      BNE $E5A7
E5A1  20 63 E6                   JSR $E663
E5A4  4C C3 E5                   JMP $E5C3
E5A7  20 63 E6                   JSR $E663
E5AA  D0 DB                      BNE $E587
E5AC  A5 22                      LDA ICCOMZ
E5AE  29 02                      AND #2       ;CBUFHI?, CTIMLO?, DIRECT?, LEDGE?, TEMPHI?
E5B0  D0 11                      BNE $E5C3
E5B2  20 89 E6                   JSR $E689
E5B5  85 2F                      STA CIOCHR
E5B7  30 0A                      BMI $E5C3
E5B9  A5 2F                      LDA CIOCHR
E5BB  C9 9B                      CMP #$9B     ;CR?, EOL?
E5BD  D0 F3                      BNE $E5B2
E5BF  A9 89                      LDA #$89     ;TRNRCD?
E5C1  85 23                      STA ICSTAZ
E5C3  20 77 E6                   JSR $E677
E5C6  4C 1D E6                   JMP $E61D
E5C9  A5 22                      LDA ICCOMZ
E5CB  25 2A                      AND ICAX1Z
E5CD  D0 05                      BNE $E5D4
E5CF  A0 87                      LDY #$87     ;RDONLY?
E5D1  4C 1B E6                   JMP $E61B
E5D4  20 3D E6                   JSR $E63D
E5D7  B0 F8                      BCS $E5D1
E5D9  A5 28                      LDA ICBLLZ
E5DB  05 29                      ORA ICBLHZ
E5DD  D0 06                      BNE $E5E5
E5DF  A5 2F                      LDA CIOCHR
E5E1  E6 28                      INC ICBLLZ
E5E3  D0 06                      BNE $E5EB
E5E5  A0 00                      LDY #0       ;B192HI?, CTIMHI?, RADON?, RIRGHI?, WIRGHI?
E5E7  B1 24                      LDA (ICBALZ),Y
E5E9  85 2F                      STA CIOCHR
E5EB  20 89 E6                   JSR $E689
E5EE  30 25                      BMI $E615
E5F0  20 70 E6                   JSR $E670
E5F3  A5 22                      LDA ICCOMZ
E5F5  29 02                      AND #2       ;CBUFHI?, CTIMLO?, DIRECT?, LEDGE?, TEMPHI?
E5F7  D0 0C                      BNE $E605
E5F9  A5 2F                      LDA CIOCHR
E5FB  C9 9B                      CMP #$9B     ;CR?, EOL?
E5FD  D0 06                      BNE $E605
E5FF  20 63 E6                   JSR $E663
E602  4C 15 E6                   JMP $E615
E605  20 63 E6                   JSR $E663
E608  D0 DB                      BNE $E5E5
E60A  A5 22                      LDA ICCOMZ
E60C  29 02                      AND #2       ;CBUFHI?, CTIMLO?, DIRECT?, LEDGE?, TEMPHI?
E60E  D0 05                      BNE $E615
E610  A9 9B                      LDA #$9B     ;CR?, EOL?
E612  20 89 E6                   JSR $E689
E615  20 77 E6                   JSR $E677
E618  4C 1D E6                   JMP $E61D
E61B  84 23                      STY ICSTAZ
E61D  A4 2E                      LDY ICIDNO
E61F  B9 44 03                   LDA ICBAL,Y
E622  85 24                      STA ICBALZ
E624  B9 45 03                   LDA ICBAH,Y
E627  85 25                      STA ICBAHZ
E629  A2 00                      LDX #0       ;B192HI?, CTIMHI?, RADON?, RIRGHI?, WIRGHI?
E62B  B5 20                      LDA ICHIDZ,X
E62D  99 40 03                   STA ICHID,Y
E630  E8                         INX 
E631  C8                         INY 
E632  E0 0C                      CPX #$0C     ;CLOSE?, OPNINO?
E634  90 F5                      BCC $E62B
E636  A5 2F                      LDA CIOCHR
E638  A6 2E                      LDX ICIDNO
E63A  A4 23                      LDY ICSTAZ
E63C  60                         RTS 
E63D  A4 20                      LDY ICHIDZ
E63F  C0 22                      CPY #$22     ;FORMAT?
E641  90 04                      BCC $E647
E643  A0 85                      LDY #$85     ;NOTOPN?
E645  B0 1B                      BCS $E662
E647  B9 1B 03                   LDA $031B,Y
E64A  85 2C                      STA ICSPRZ
E64C  B9 1C 03                   LDA $031C,Y
E64F  85 2D                      STA ICSPRZ+1
E651  A4 17                      LDY ICCOMT
E653  B9 C6 E6                   LDA $E6C6,Y
E656  A8                         TAY 
E657  B1 2C                      LDA (ICSPRZ),Y
E659  AA                         TAX 
E65A  C8                         INY 
E65B  B1 2C                      LDA (ICSPRZ),Y
E65D  85 2D                      STA ICSPRZ+1
E65F  86 2C                      STX ICSPRZ
E661  18                         CLC 
E662  60                         RTS 
E663  C6 28                      DEC ICBLLZ
E665  A5 28                      LDA ICBLLZ
E667  C9 FF                      CMP #$FF     ;IOCFRE?
E669  D0 02                      BNE $E66D
E66B  C6 29                      DEC ICBLHZ
E66D  05 29                      ORA ICBLHZ
E66F  60                         RTS 
E670  E6 24                      INC ICBALZ
E672  D0 02                      BNE $E676
E674  E6 25                      INC ICBAHZ
E676  60                         RTS 
E677  A6 2E                      LDX ICIDNO
E679  38                         SEC 
E67A  BD 48 03                   LDA ICBLL,X
E67D  E5 28                      SBC ICBLLZ
E67F  85 28                      STA ICBLLZ
E681  BD 49 03                   LDA ICBLH,X
E684  E5 29                      SBC ICBLHZ
E686  85 29                      STA ICBLHZ
E688  60                         RTS 
E689  A0 92                      LDY #$92     ;FNCNOT?
E68B  20 93 E6                   JSR $E693
E68E  84 23                      STY ICSTAZ
E690  C0 00                      CPY #0       ;B192HI?, CTIMHI?, RADON?, RIRGHI?, WIRGHI?
E692  60                         RTS 
E693  AA                         TAX 
E694  A5 2D                      LDA ICSPRZ+1
E696  48                         PHA 
E697  A5 2C                      LDA ICSPRZ
E699  48                         PHA 
E69A  8A                         TXA 
E69B  A6 2E                      LDX ICIDNO
E69D  60                         RTS 
E69E  A0 00                      LDY #0       ;B192HI?, CTIMHI?, RADON?, RIRGHI?, WIRGHI?
E6A0  B1 24                      LDA (ICBALZ),Y
E6A2  F0 0C                      BEQ $E6B0
E6A4  A0 21                      LDY #$21     ;DELETE?
E6A6  D9 1A 03                   CMP HATABS,Y
E6A9  F0 0A                      BEQ $E6B5
E6AB  88                         DEY 
E6AC  88                         DEY 
E6AD  88                         DEY 
E6AE  10 F6                      BPL $E6A6
E6B0  A0 82                      LDY #$82     ;NONDEV?
E6B2  38                         SEC 
E6B3  B0 13                      BCS $E6C8
E6B5  98                         TYA 
E6B6  85 20                      STA ICHIDZ
E6B8  38                         SEC 
E6B9  A0 01                      LDY #1       ;APPEND?, DRETRI?, SUCCES?
E6BB  B1 24                      LDA (ICBALZ),Y
E6BD  E9 30                      SBC #$30     ;ASCZER?, FLOPPY?
E6BF  C9 0A                      CMP #$0A     ;RSIRG?
E6C1  90 02                      BCC $E6C5
E6C3  A9 01                      LDA #1       ;APPEND?, DRETRI?, SUCCES?
E6C5  85 21                      STA ICDNOZ
E6C7  18                         CLC 
E6C8  60                         RTS 
E6C9  00                         .BYTE $00
E6CA  04                         .BYTE $04
E6CB  04                         .BYTE $04
E6CC  04                         .BYTE $04
E6CD  04                         .BYTE $04
E6CE  06                         .BYTE $06
E6CF  06                         .BYTE $06
E6D0  06                         .BYTE $06
E6D1  06                         .BYTE $06
E6D2  02                         .BYTE $02
E6D3  08                         .BYTE $08
E6D4  0A                         .BYTE $0A
E6D5  A9 40     INTORG           LDA #$40     
E6D7  8D 0E D4                   STA NMIEN
E6DA  A9 38                      LDA #$38     
E6DC  8D 02 D3                   STA PACTL
E6DF  8D 03 D3                   STA PBCTL
E6E2  A9 00                      LDA #0       ;B192HI?, CTIMHI?, RADON?, RIRGHI?, WIRGHI?
E6E4  8D 00 D3                   STA PORTA
E6E7  8D 01 D3                   STA PORTB
E6EA  A9 3C                      LDA #$3C     ;MOTRST?, NCOMHI?
E6EC  8D 02 D3                   STA PACTL
E6EF  8D 03 D3                   STA PBCTL
E6F2  60                         RTS 
E6F3  6C 16 02  PIRQ             JMP (VIMIRQ)
E6F6  48                         PHA 
E6F7  A9 10                      LDA #$10     ;IOCBSZ?, MXDMOD?
E6F9  2C 0E D2                   BIT IRQST
E6FC  D0 0D                      BNE $E70B
E6FE  A9 EF                      LDA #$EF     
E700  8D 0E D2                   STA IRQEN
E703  A5 10                      LDA POKMSK
E705  8D 0E D2                   STA IRQEN
E708  6C 0C 02                   JMP (VSEROR)
E70B  A9 20                      LDA #$20     ;INSCLR?, RENAME?
E70D  2C 0E D2                   BIT IRQST
E710  D0 0D                      BNE $E71F
E712  A9 DF                      LDA #$DF     
E714  8D 0E D2                   STA IRQEN
E717  A5 10                      LDA POKMSK
E719  8D 0E D2                   STA IRQEN
E71C  6C 0A 02                   JMP (VSERIN)
E71F  A9 08                      LDA #8       ;OPNOT?
E721  24 10                      BIT POKMSK
E723  F0 12                      BEQ $E737
E725  2C 0E D2                   BIT IRQST
E728  D0 0D                      BNE $E737
E72A  A9 F7                      LDA #$F7     
E72C  8D 0E D2                   STA IRQEN
E72F  A5 10                      LDA POKMSK
E731  8D 0E D2                   STA IRQEN
E734  6C 0E 02                   JMP (VSEROC)
E737  AD 0E D2                   LDA IRQST
E73A  6A                         ROR A
E73B  B0 0D                      BCS $E74A
E73D  A9 FE                      LDA #$FE     
E73F  8D 0E D2                   STA IRQEN
E742  A5 10                      LDA POKMSK
E744  8D 0E D2                   STA IRQEN
E747  6C 10 02                   JMP (VTIMR1)
E74A  6A                         ROR A
E74B  B0 0D                      BCS $E75A
E74D  A9 FD                      LDA #$FD     
E74F  8D 0E D2                   STA IRQEN
E752  A5 10                      LDA POKMSK
E754  8D 0E D2                   STA IRQEN
E757  6C 12 02                   JMP (VTIMR2)
E75A  6A                         ROR A
E75B  B0 0A                      BCS $E767
E75D  A9 FB                      LDA #$FB     
E75F  8D 0E D2                   STA IRQEN
E762  A5 10                      LDA POKMSK
E764  8D 0E D2                   STA IRQEN
E767  2C 0E D2                   BIT IRQST
E76A  70 0D                      BVS $E779
E76C  A9 BF                      LDA #$BF     
E76E  8D 0E D2                   STA IRQEN
E771  A5 10                      LDA POKMSK
E773  8D 0E D2                   STA IRQEN
E776  6C 08 02                   JMP (VKEYBD)
E779  30 18                      BMI $E793
E77B  A9 7F                      LDA #$7F     
E77D  8D 0E D2                   STA IRQEN
E780  A5 10                      LDA POKMSK
E782  8D 0E D2                   STA IRQEN
E785  A9 00                      LDA #0       ;B192HI?, CTIMHI?, RADON?, RIRGHI?, WIRGHI?
E787  85 11                      STA BRKKEY
E789  8D FF 02                   STA SSFLAG
E78C  8D F0 02                   STA CRSINH
E78F  85 4D                      STA ATRACT
E791  68                         PLA 
E792  40                         RTI 
E793  2C 02 D3                   BIT PACTL
E796  10 06                      BPL $E79E
E798  AD 00 D3                   LDA PORTA
E79B  6C 02 02                   JMP (VPRCED)
E79E  2C 03 D3                   BIT PBCTL
E7A1  10 06                      BPL $E7A9
E7A3  AD 01 D3                   LDA PORTB
E7A6  6C 04 02                   JMP (VINTER)
E7A9  08                         PHP 
E7AA  68                         PLA 
E7AB  29 10                      AND #$10     ;IOCBSZ?, MXDMOD?
E7AD  F0 03                      BEQ $E7B2
E7AF  6C 06 02                   JMP (VBREAK)
E7B2  68                         PLA 
E7B3  40                         RTI 
E7B4  2C 0F D4  PNMI             BIT NMIST
E7B7  10 03                      BPL $E7BC
E7B9  6C 00 02                   JMP (VDSLST)
E7BC  48                         PHA 
E7BD  AD 0F D4                   LDA NMIST
E7C0  29 20                      AND #$20     ;INSCLR?, RENAME?
E7C2  F0 03                      BEQ $E7C7
E7C4  4C 74 E4                   JMP WARMSV
E7C7  8A                         TXA 
E7C8  48                         PHA 
E7C9  98                         TYA 
E7CA  48                         PHA 
E7CB  8D 0F D4                   STA NMIRES
E7CE  6C 22 02                   JMP (VVBLKI)
E7D1  E6 14     SYSVBL           INC RTCLOK+2
E7D3  D0 08                      BNE $E7DD
E7D5  E6 4D                      INC ATRACT
E7D7  E6 13                      INC RTCLOK+1
E7D9  D0 02                      BNE $E7DD
E7DB  E6 12                      INC RTCLOK
E7DD  A9 FE                      LDA #$FE     
E7DF  A2 00                      LDX #0       ;B192HI?, CTIMHI?, RADON?, RIRGHI?, WIRGHI?
E7E1  A4 4D                      LDY ATRACT
E7E3  10 06                      BPL $E7EB
E7E5  85 4D                      STA ATRACT
E7E7  A6 13                      LDX RTCLOK+1
E7E9  A9 F6                      LDA #$F6     
E7EB  85 4E                      STA DRKMSK
E7ED  86 4F                      STX COLRSH
E7EF  A2 00                      LDX #0       ;B192HI?, CTIMHI?, RADON?, RIRGHI?, WIRGHI?
E7F1  20 F5 E8                   JSR $E8F5
E7F4  D0 03                      BNE $E7F9
E7F6  20 EF E8                   JSR $E8EF
E7F9  A5 42                      LDA CRITIC
E7FB  D0 08                      BNE $E805
E7FD  BA                         TSX 
E7FE  BD 04 01                   LDA $0104,X
E801  29 04                      AND #4       ;OPNIN?
E803  F0 03                      BEQ $E808
E805  4C 3E E9                   JMP $E93E
E808  58                         CLI 
E809  AD 0D D4                   LDA PENV
E80C  8D 35 02                   STA LPENV
E80F  AD 0C D4                   LDA PENH
E812  8D 34 02                   STA LPENH
E815  AD 31 02                   LDA SDLSTH
E818  8D 03 D4                   STA DLISTH
E81B  AD 30 02                   LDA SDLSTL
E81E  8D 02 D4                   STA DLISTL
E821  AD 2F 02                   LDA SDMCTL
E824  8D 00 D4                   STA DMACTL
E827  AD 6F 02                   LDA GPRIOR
E82A  8D 1B D0                   STA PRIOR
E82D  A9 08                      LDA #8       ;OPNOT?
E82F  8D 1F D0                   STA CONSOL
E832  A2 08                      LDX #8       ;OPNOT?
E834  BD C0 02                   LDA PCOLR0,X
E837  45 4F                      EOR COLRSH
E839  25 4E                      AND DRKMSK
E83B  9D 12 D0                   STA COLPM0,X
E83E  CA                         DEX 
E83F  10 F3                      BPL $E834
E841  AD F4 02                   LDA CHBAS
E844  8D 09 D4                   STA CHBASE
E847  AD F3 02                   LDA CHACT
E84A  8D 01 D4                   STA CHACTL
E84D  A2 02                      LDX #2       ;CBUFHI?, CTIMLO?, DIRECT?, LEDGE?, TEMPHI?
E84F  20 F5 E8                   JSR $E8F5
E852  D0 03                      BNE $E857
E854  20 F2 E8                   JSR $E8F2
E857  A2 02                      LDX #2       ;CBUFHI?, CTIMLO?, DIRECT?, LEDGE?, TEMPHI?
E859  E8                         INX 
E85A  E8                         INX 
E85B  BD 18 02                   LDA CDTMV1,X
E85E  1D 19 02                   ORA CDTMV1+1,X
E861  F0 06                      BEQ $E869
E863  20 F5 E8                   JSR $E8F5
E866  9D 26 02                   STA CDTMA1,X
E869  E0 08                      CPX #8       ;OPNOT?
E86B  D0 EC                      BNE $E859
E86D  AD 0F D2                   LDA SKSTAT
E870  29 04                      AND #4       ;OPNIN?
E872  F0 08                      BEQ $E87C
E874  AD F1 02                   LDA KEYDEL
E877  F0 03                      BEQ $E87C
E879  CE F1 02                   DEC KEYDEL
E87C  AD 2B 02                   LDA SRTIMR
E87F  F0 17                      BEQ $E898
E881  AD 0F D2                   LDA SKSTAT
E884  29 04                      AND #4       ;OPNIN?
E886  D0 60                      BNE $E8E8
E888  CE 2B 02                   DEC SRTIMR
E88B  D0 0B                      BNE $E898
E88D  A9 06                      LDA #6       ;DEGON?
E88F  8D 2B 02                   STA SRTIMR
E892  AD 09 D2                   LDA KBCODE
E895  8D FC 02                   STA CH
E898  A0 01                      LDY #1       ;APPEND?, DRETRI?, SUCCES?
E89A  A2 03                      LDX #3       ;OPEN?
E89C  B9 00 D3                   LDA PORTA,Y
E89F  4A                         LSR A
E8A0  4A                         LSR A
E8A1  4A                         LSR A
E8A2  4A                         LSR A
E8A3  9D 78 02                   STA STICK0,X
E8A6  CA                         DEX 
E8A7  B9 00 D3                   LDA PORTA,Y
E8AA  29 0F                      AND #$0F     ;WSIRG?
E8AC  9D 78 02                   STA STICK0,X
E8AF  CA                         DEX 
E8B0  88                         DEY 
E8B1  10 E9                      BPL $E89C
E8B3  A2 03                      LDX #3       ;OPEN?
E8B5  BD 10 D0                   LDA TRIG0,X
E8B8  9D 84 02                   STA STRIG0,X
E8BB  BD 00 D2                   LDA POT0,X
E8BE  9D 70 02                   STA PADDL0,X
E8C1  BD 04 D2                   LDA POT4,X
E8C4  9D 74 02                   STA PADDL4,X
E8C7  CA                         DEX 
E8C8  10 EB                      BPL $E8B5
E8CA  8D 0B D2                   STA POTGO
E8CD  A2 06                      LDX #6       ;DEGON?
E8CF  A0 03                      LDY #3       ;OPEN?
E8D1  B9 78 02                   LDA STICK0,Y
E8D4  4A                         LSR A
E8D5  4A                         LSR A
E8D6  4A                         LSR A
E8D7  9D 7D 02                   STA PTRIG1,X
E8DA  A9 00                      LDA #0       ;B192HI?, CTIMHI?, RADON?, RIRGHI?, WIRGHI?
E8DC  2A                         ROL A
E8DD  9D 7C 02                   STA PTRIG0,X
E8E0  CA                         DEX 
E8E1  CA                         DEX 
E8E2  88                         DEY 
E8E3  10 EC                      BPL $E8D1
E8E5  6C 24 02                   JMP (VVBLKD)
E8E8  A9 00                      LDA #0       ;B192HI?, CTIMHI?, RADON?, RIRGHI?, WIRGHI?
E8EA  8D 2B 02                   STA SRTIMR
E8ED  F0 A9                      BEQ $E898
E8EF  6C 26 02                   JMP (CDTMA1)
E8F2  6C 28 02                   JMP (CDTMA2)
E8F5  BC 18 02                   LDY CDTMV1,X
E8F8  D0 08                      BNE $E902
E8FA  BC 19 02                   LDY CDTMV1+1,X
E8FD  F0 10                      BEQ $E90F
E8FF  DE 19 02                   DEC CDTMV1+1,X
E902  DE 18 02                   DEC CDTMV1,X
E905  D0 08                      BNE $E90F
E907  BC 19 02                   LDY CDTMV1+1,X
E90A  D0 03                      BNE $E90F
E90C  A9 00                      LDA #0       ;B192HI?, CTIMHI?, RADON?, RIRGHI?, WIRGHI?
E90E  60                         RTS 
E90F  A9 FF                      LDA #$FF     ;IOCFRE?
E911  60                         RTS 
E912  0A        SETVBL           ASL A
E913  8D 2D 02                   STA INTEMP
E916  A9 00                      LDA #0       ;B192HI?, CTIMHI?, RADON?, RIRGHI?, WIRGHI?
E918  8D 0E D4                   STA NMIEN
E91B  8A                         TXA 
E91C  AE 2D 02                   LDX INTEMP
E91F  9D 17 02                   STA VIMIRQ+1,X
E922  98                         TYA 
E923  9D 16 02                   STA VIMIRQ,X
E926  A9 40                      LDA #$40     
E928  8D 0E D4                   STA NMIEN
E92B  2C 0F D4                   BIT NMIST
E92E  50 0D                      BVC $E93D
E930  A9 E9                      LDA #$E9     
E932  48                         PHA 
E933  A9 3D                      LDA #$3D     
E935  48                         PHA 
E936  08                         PHP 
E937  48                         PHA 
E938  48                         PHA 
E939  48                         PHA 
E93A  6C 22 02                   JMP (VVBLKI)
E93D  60                         RTS 
E93E  68                         PLA 
E93F  A8                         TAY 
E940  68                         PLA 
E941  AA                         TAX 
E942  68                         PLA 
E943  40                         RTI 
E944  A9 3C     SIOORG           LDA #$3C     ;MOTRST?, NCOMHI?
E946  8D 02 D3                   STA PACTL
E949  A9 3C                      LDA #$3C     ;MOTRST?, NCOMHI?
E94B  8D 03 D3                   STA PBCTL
E94E  A9 03                      LDA #3       ;OPEN?
E950  8D 32 02                   STA SSKCTL
E953  85 41                      STA SOUNDR
E955  8D 0F D2                   STA SKCTL
E958  60                         RTS 
E959  BA                         TSX 
E95A  8E 18 03                   STX STACKP
E95D  A9 01                      LDA #1       ;APPEND?, DRETRI?, SUCCES?
E95F  85 42                      STA CRITIC
E961  AD 00 03                   LDA DDEVIC
E964  C9 60                      CMP #$60     ;CASET?
E966  D0 03                      BNE $E96B
E968  4C 84 EB                   JMP CASENT
E96B  A9 00                      LDA #0       ;B192HI?, CTIMHI?, RADON?, RIRGHI?, WIRGHI?
E96D  8D 0F 03                   STA CASFLG
E970  A9 01                      LDA #1       ;APPEND?, DRETRI?, SUCCES?
E972  85 37                      STA DRETRY
E974  A9 0D                      LDA #$0D     ;CRETRI?, STATIS?
E976  85 36                      STA CRETRY
E978  A9 28                      LDA #$28     ;B192LO?
E97A  8D 04 D2                   STA AUDF3
E97D  A9 00                      LDA #0       ;B192HI?, CTIMHI?, RADON?, RIRGHI?, WIRGHI?
E97F  8D 06 D2                   STA AUDF4
E982  18                         CLC 
E983  AD 00 03                   LDA DDEVIC
E986  6D 01 03                   ADC DUNIT
E989  69 FF                      ADC #$FF     ;IOCFRE?
E98B  8D 3A 02                   STA CDEVIC
E98E  AD 02 03                   LDA DCOMND
E991  8D 3B 02                   STA CCOMND
E994  AD 0A 03                   LDA DAUX1
E997  8D 3C 02                   STA CAUX1
E99A  AD 0B 03                   LDA DAUX2
E99D  8D 3D 02                   STA CAUX2
E9A0  18                         CLC 
E9A1  A9 3A                      LDA #$3A     ;CBUFLO?, COLON?
E9A3  85 32                      STA BUFRLO
E9A5  69 04                      ADC #4       ;OPNIN?
E9A7  85 34                      STA BFENLO
E9A9  A9 02                      LDA #2       ;CBUFHI?, CTIMLO?, DIRECT?, LEDGE?, TEMPHI?
E9AB  85 33                      STA BUFRHI
E9AD  85 35                      STA BFENHI
E9AF  A9 34                      LDA #$34     ;MOTRGO?, NCOMLO?
E9B1  8D 03 D3                   STA PBCTL
E9B4  20 8E EC                   JSR $EC8E
E9B7  AD 3F 02                   LDA ERRFLG
E9BA  D0 03                      BNE $E9BF
E9BC  98                         TYA 
E9BD  D0 07                      BNE $E9C6
E9BF  C6 36                      DEC CRETRY
E9C1  10 B5                      BPL $E978
E9C3  4C 06 EA                   JMP $EA06
E9C6  AD 03 03                   LDA DSTATS
E9C9  10 0C                      BPL $E9D7
E9CB  A9 0D                      LDA #$0D     ;CRETRI?, STATIS?
E9CD  85 36                      STA CRETRY
E9CF  20 6E EB                   JSR $EB6E
E9D2  20 8E EC                   JSR $EC8E
E9D5  F0 E8                      BEQ $E9BF
E9D7  20 79 EC                   JSR $EC79
E9DA  A9 00                      LDA #0       ;B192HI?, CTIMHI?, RADON?, RIRGHI?, WIRGHI?
E9DC  8D 3F 02                   STA ERRFLG
E9DF  20 9F EC                   JSR $EC9F
E9E2  F0 12                      BEQ $E9F6
E9E4  2C 03 03                   BIT DSTATS
E9E7  70 07                      BVS $E9F0
E9E9  AD 3F 02                   LDA ERRFLG
E9EC  D0 18                      BNE $EA06
E9EE  F0 1D                      BEQ $EA0D
E9F0  20 6E EB                   JSR $EB6E
E9F3  20 E2 EA                   JSR $EAE2
E9F6  AD 3F 02                   LDA ERRFLG
E9F9  F0 05                      BEQ $EA00
E9FB  AD 19 03                   LDA TSTAT
E9FE  85 30                      STA STATUS
EA00  A5 30                      LDA STATUS
EA02  C9 01                      CMP #1       ;APPEND?, DRETRI?, SUCCES?
EA04  F0 07                      BEQ $EA0D
EA06  C6 37                      DEC DRETRY
EA08  30 03                      BMI $EA0D
EA0A  4C 74 E9                   JMP $E974
EA0D  20 63 EC                   JSR $EC63
EA10  A9 00                      LDA #0       ;B192HI?, CTIMHI?, RADON?, RIRGHI?, WIRGHI?
EA12  85 42                      STA CRITIC
EA14  A4 30                      LDY STATUS
EA16  8C 03 03                   STY DSTATS
EA19  60                         RTS 
EA1A  A9 00                      LDA #0       ;B192HI?, CTIMHI?, RADON?, RIRGHI?, WIRGHI?
EA1C  8D 3F 02                   STA ERRFLG
EA1F  18                         CLC 
EA20  A9 3E                      LDA #$3E     ;TEMPLO?
EA22  85 32                      STA BUFRLO
EA24  69 01                      ADC #1       ;APPEND?, DRETRI?, SUCCES?
EA26  85 34                      STA BFENLO
EA28  A9 02                      LDA #2       ;CBUFHI?, CTIMLO?, DIRECT?, LEDGE?, TEMPHI?
EA2A  85 33                      STA BUFRHI
EA2C  85 35                      STA BFENHI
EA2E  A9 FF                      LDA #$FF     ;IOCFRE?
EA30  85 3C                      STA NOCKSM
EA32  20 E2 EA                   JSR $EAE2
EA35  A0 FF                      LDY #$FF     ;IOCFRE?
EA37  A5 30                      LDA STATUS
EA39  C9 01                      CMP #1       ;APPEND?, DRETRI?, SUCCES?
EA3B  D0 19                      BNE $EA56
EA3D  AD 3E 02                   LDA TEMP
EA40  C9 41                      CMP #$41     ;ACK?
EA42  F0 21                      BEQ $EA65
EA44  C9 43                      CMP #$43     ;CASSET?, COMPLT?
EA46  F0 1D                      BEQ $EA65
EA48  C9 45                      CMP #$45     ;ERROR?, SCREDT?
EA4A  D0 06                      BNE $EA52
EA4C  A9 90                      LDA #$90     ;DERROR?
EA4E  85 30                      STA STATUS
EA50  D0 04                      BNE $EA56
EA52  A9 8B                      LDA #$8B     ;DNACK?
EA54  85 30                      STA STATUS
EA56  A5 30                      LDA STATUS
EA58  C9 8A                      CMP #$8A     ;TIMOUT?
EA5A  F0 07                      BEQ $EA63
EA5C  A9 FF                      LDA #$FF     ;IOCFRE?
EA5E  8D 3F 02                   STA ERRFLG
EA61  D0 02                      BNE $EA65
EA63  A0 00                      LDY #0       ;B192HI?, CTIMHI?, RADON?, RIRGHI?, WIRGHI?
EA65  A5 30                      LDA STATUS
EA67  8D 19 03                   STA TSTAT
EA6A  60                         RTS 
EA6B  A9 01     SEND             LDA #1       ;APPEND?, DRETRI?, SUCCES?
EA6D  85 30                      STA STATUS
EA6F  20 F6 EB                   JSR $EBF6
EA72  A0 00                      LDY #0       ;B192HI?, CTIMHI?, RADON?, RIRGHI?, WIRGHI?
EA74  84 31                      STY CHKSUM
EA76  84 3B                      STY CHKSNT
EA78  84 3A                      STY XMTDON
EA7A  B1 32                      LDA (BUFRLO),Y
EA7C  8D 0D D2                   STA SEROUT
EA7F  85 31                      STA CHKSUM
EA81  A5 11                      LDA BRKKEY
EA83  D0 03                      BNE $EA88
EA85  4C A4 ED                   JMP $EDA4
EA88  A5 3A                      LDA XMTDON
EA8A  F0 F5                      BEQ $EA81
EA8C  20 63 EC                   JSR $EC63
EA8F  60                         RTS 
EA90  98        ISRODN           TYA 
EA91  48                         PHA 
EA92  E6 32                      INC BUFRLO
EA94  D0 02                      BNE $EA98
EA96  E6 33                      INC BUFRHI
EA98  A5 33                      LDA BUFRHI
EA9A  C5 35                      CMP BFENHI
EA9C  90 22                      BCC $EAC0
EA9E  A5 32                      LDA BUFRLO
EAA0  C5 34                      CMP BFENLO
EAA2  90 1C                      BCC $EAC0
EAA4  A5 3B                      LDA CHKSNT
EAA6  D0 0B                      BNE $EAB3
EAA8  A5 31                      LDA CHKSUM
EAAA  8D 0D D2                   STA SEROUT
EAAD  A9 FF                      LDA #$FF     ;IOCFRE?
EAAF  85 3B                      STA CHKSNT
EAB1  D0 09                      BNE $EABC
EAB3  A5 10                      LDA POKMSK
EAB5  09 08                      ORA #8       ;OPNOT?
EAB7  85 10                      STA POKMSK
EAB9  8D 0E D2                   STA IRQEN
EABC  68                         PLA 
EABD  A8                         TAY 
EABE  68                         PLA 
EABF  40                         RTI 
EAC0  A0 00                      LDY #0       ;B192HI?, CTIMHI?, RADON?, RIRGHI?, WIRGHI?
EAC2  B1 32                      LDA (BUFRLO),Y
EAC4  8D 0D D2                   STA SEROUT
EAC7  18                         CLC 
EAC8  65 31                      ADC CHKSUM
EACA  69 00                      ADC #0       ;B192HI?, CTIMHI?, RADON?, RIRGHI?, WIRGHI?
EACC  85 31                      STA CHKSUM
EACE  4C BC EA                   JMP $EABC
EAD1  A5 3B     ISRTD            LDA CHKSNT
EAD3  F0 0B                      BEQ $EAE0
EAD5  85 3A                      STA XMTDON
EAD7  A5 10                      LDA POKMSK
EAD9  29 F7                      AND #$F7     
EADB  85 10                      STA POKMSK
EADD  8D 0E D2                   STA IRQEN
EAE0  68                         PLA 
EAE1  40                         RTI 
EAE2  A9 00                      LDA #0       ;B192HI?, CTIMHI?, RADON?, RIRGHI?, WIRGHI?
EAE4  AC 0F 03                   LDY CASFLG
EAE7  D0 02                      BNE $EAEB
EAE9  85 31                      STA CHKSUM
EAEB  85 38                      STA BUFRFL
EAED  85 39                      STA RECVDN
EAEF  A9 01                      LDA #1       ;APPEND?, DRETRI?, SUCCES?
EAF1  85 30                      STA STATUS
EAF3  20 1F EC                   JSR $EC1F
EAF6  A9 3C                      LDA #$3C     ;MOTRST?, NCOMHI?
EAF8  8D 03 D3                   STA PBCTL
EAFB  A5 11                      LDA BRKKEY
EAFD  D0 03                      BNE $EB02
EAFF  4C A4 ED                   JMP $EDA4
EB02  AD 17 03                   LDA TIMFLG
EB05  F0 05                      BEQ $EB0C
EB07  A5 39                      LDA RECVDN
EB09  F0 F0                      BEQ $EAFB
EB0B  60                         RTS 
EB0C  A9 8A                      LDA #$8A     ;TIMOUT?
EB0E  85 30                      STA STATUS
EB10  60                         RTS 
EB11  98        ISRSIR           TYA 
EB12  48                         PHA 
EB13  AD 0F D2                   LDA SKSTAT
EB16  8D 0A D2                   STA SKRES
EB19  30 04                      BMI $EB1F
EB1B  A0 8C                      LDY #$8C     ;FRMERR?
EB1D  84 30                      STY STATUS
EB1F  29 20                      AND #$20     ;INSCLR?, RENAME?
EB21  D0 04                      BNE $EB27
EB23  A0 8E                      LDY #$8E     ;OVRRUN?
EB25  84 30                      STY STATUS
EB27  A5 38                      LDA BUFRFL
EB29  F0 13                      BEQ $EB3E
EB2B  AD 0D D2                   LDA SERIN
EB2E  C5 31                      CMP CHKSUM
EB30  F0 04                      BEQ $EB36
EB32  A0 8F                      LDY #$8F     ;CHKERR?
EB34  84 30                      STY STATUS
EB36  A9 FF                      LDA #$FF     ;IOCFRE?
EB38  85 39                      STA RECVDN
EB3A  68                         PLA 
EB3B  A8                         TAY 
EB3C  68                         PLA 
EB3D  40                         RTI 
EB3E  AD 0D D2                   LDA SERIN
EB41  A0 00                      LDY #0       ;B192HI?, CTIMHI?, RADON?, RIRGHI?, WIRGHI?
EB43  91 32                      STA (BUFRLO),Y
EB45  18                         CLC 
EB46  65 31                      ADC CHKSUM
EB48  69 00                      ADC #0       ;B192HI?, CTIMHI?, RADON?, RIRGHI?, WIRGHI?
EB4A  85 31                      STA CHKSUM
EB4C  E6 32                      INC BUFRLO
EB4E  D0 02                      BNE $EB52
EB50  E6 33                      INC BUFRHI
EB52  A5 33                      LDA BUFRHI
EB54  C5 35                      CMP BFENHI
EB56  90 E2                      BCC $EB3A
EB58  A5 32                      LDA BUFRLO
EB5A  C5 34                      CMP BFENLO
EB5C  90 DC                      BCC $EB3A
EB5E  A5 3C                      LDA NOCKSM
EB60  F0 06                      BEQ $EB68
EB62  A9 00                      LDA #0       ;B192HI?, CTIMHI?, RADON?, RIRGHI?, WIRGHI?
EB64  85 3C                      STA NOCKSM
EB66  F0 CE                      BEQ $EB36
EB68  A9 FF                      LDA #$FF     ;IOCFRE?
EB6A  85 38                      STA BUFRFL
EB6C  D0 CC                      BNE $EB3A
EB6E  18                         CLC 
EB6F  AD 04 03                   LDA DBUFLO
EB72  85 32                      STA BUFRLO
EB74  6D 08 03                   ADC DBYTLO
EB77  85 34                      STA BFENLO
EB79  AD 05 03                   LDA DBUFHI
EB7C  85 33                      STA BUFRHI
EB7E  6D 09 03                   ADC DBYTHI
EB81  85 35                      STA BFENHI
EB83  60                         RTS 
EB84  AD 03 03  CASENT           LDA DSTATS
EB87  10 2E                      BPL $EBB7
EB89  A9 CC                      LDA #$CC     ;B600LO?
EB8B  8D 04 D2                   STA AUDF3
EB8E  A9 05                      LDA #5       ;B600HI?, GETREC?, HITONE?
EB90  8D 06 D2                   STA AUDF4
EB93  20 F6 EB                   JSR $EBF6
EB96  A0 0D                      LDY #$0D     ;CRETRI?, STATIS?
EB98  AD 0B 03                   LDA DAUX2
EB9B  30 02                      BMI $EB9F
EB9D  A0 96                      LDY #$96     
EB9F  A2 00                      LDX #0       ;B192HI?, CTIMHI?, RADON?, RIRGHI?, WIRGHI?
EBA1  20 BD ED                   JSR $EDBD
EBA4  A9 34                      LDA #$34     ;MOTRGO?, NCOMLO?
EBA6  8D 02 D3                   STA PACTL
EBA9  AD 17 03                   LDA TIMFLG
EBAC  D0 FB                      BNE $EBA9
EBAE  20 6E EB                   JSR $EB6E
EBB1  20 6B EA                   JSR SEND
EBB4  4C E3 EB                   JMP $EBE3
EBB7  A9 FF                      LDA #$FF     ;IOCFRE?
EBB9  8D 0F 03                   STA CASFLG
EBBC  A0 08                      LDY #8       ;OPNOT?
EBBE  AD 0B 03                   LDA DAUX2
EBC1  30 02                      BMI $EBC5
EBC3  A0 64                      LDY #$64     
EBC5  A2 00                      LDX #0       ;B192HI?, CTIMHI?, RADON?, RIRGHI?, WIRGHI?
EBC7  20 BD ED                   JSR $EDBD
EBCA  A9 34                      LDA #$34     ;MOTRGO?, NCOMLO?
EBCC  8D 02 D3                   STA PACTL
EBCF  AD 17 03                   LDA TIMFLG
EBD2  D0 FB                      BNE $EBCF
EBD4  20 6E EB                   JSR $EB6E
EBD7  20 79 EC                   JSR $EC79
EBDA  20 BD ED                   JSR $EDBD
EBDD  20 14 ED                   JSR $ED14
EBE0  20 E2 EA                   JSR $EAE2
EBE3  AD 0B 03                   LDA DAUX2
EBE6  30 05                      BMI $EBED
EBE8  A9 3C                      LDA #$3C     ;MOTRST?, NCOMHI?
EBEA  8D 02 D3                   STA PACTL
EBED  4C 0D EA                   JMP $EA0D
EBF0  A9 00                      LDA #0       ;B192HI?, CTIMHI?, RADON?, RIRGHI?, WIRGHI?
EBF2  8D 17 03                   STA TIMFLG
EBF5  60                         RTS 
EBF6  A9 07                      LDA #7       ;GETCHR?, LOTONE?
EBF8  2D 32 02                   AND SSKCTL
EBFB  09 20                      ORA #$20     ;INSCLR?, RENAME?
EBFD  AC 00 03                   LDY DDEVIC
EC00  C0 60                      CPY #$60     ;CASET?
EC02  D0 0C                      BNE $EC10
EC04  09 08                      ORA #8       ;OPNOT?
EC06  A0 07                      LDY #7       ;GETCHR?, LOTONE?
EC08  8C 02 D2                   STY AUDF2
EC0B  A0 05                      LDY #5       ;B600HI?, GETREC?, HITONE?
EC0D  8C 00 D2                   STY AUDF1
EC10  8D 32 02                   STA SSKCTL
EC13  8D 0F D2                   STA SKCTL
EC16  A9 C7                      LDA #$C7     
EC18  25 10                      AND POKMSK
EC1A  09 10                      ORA #$10     ;IOCBSZ?, MXDMOD?
EC1C  4C 35 EC                   JMP $EC35
EC1F  A9 07                      LDA #7       ;GETCHR?, LOTONE?
EC21  2D 32 02                   AND SSKCTL
EC24  09 10                      ORA #$10     ;IOCBSZ?, MXDMOD?
EC26  8D 32 02                   STA SSKCTL
EC29  8D 0F D2                   STA SKCTL
EC2C  8D 0A D2                   STA SKRES
EC2F  A9 C7                      LDA #$C7     
EC31  25 10                      AND POKMSK
EC33  09 20                      ORA #$20     ;INSCLR?, RENAME?
EC35  85 10                      STA POKMSK
EC37  8D 0E D2                   STA IRQEN
EC3A  A9 28                      LDA #$28     ;B192LO?
EC3C  8D 08 D2                   STA AUDCTL
EC3F  A2 06                      LDX #6       ;DEGON?
EC41  A9 A8                      LDA #$A8     
EC43  A4 41                      LDY SOUNDR
EC45  D0 02                      BNE $EC49
EC47  A9 A0                      LDA #$A0     
EC49  9D 01 D2                   STA AUDC1,X
EC4C  CA                         DEX 
EC4D  CA                         DEX 
EC4E  10 F9                      BPL $EC49
EC50  A9 A0                      LDA #$A0     
EC52  8D 05 D2                   STA AUDC3
EC55  AC 00 03                   LDY DDEVIC
EC58  C0 60                      CPY #$60     ;CASET?
EC5A  F0 06                      BEQ $EC62
EC5C  8D 01 D2                   STA AUDC1
EC5F  8D 03 D2                   STA AUDC2
EC62  60                         RTS 
EC63  EA                         NOP 
EC64  A9 C7                      LDA #$C7     
EC66  25 10                      AND POKMSK
EC68  85 10                      STA POKMSK
EC6A  8D 0E D2                   STA IRQEN
EC6D  A2 06                      LDX #6       ;DEGON?
EC6F  A9 00                      LDA #0       ;B192HI?, CTIMHI?, RADON?, RIRGHI?, WIRGHI?
EC71  9D 01 D2                   STA AUDC1,X
EC74  CA                         DEX 
EC75  CA                         DEX 
EC76  10 F9                      BPL $EC71
EC78  60                         RTS 
EC79  AD 06 03                   LDA DTIMLO
EC7C  6A                         ROR A
EC7D  6A                         ROR A
EC7E  A8                         TAY 
EC7F  29 3F                      AND #$3F     
EC81  AA                         TAX 
EC82  98                         TYA 
EC83  6A                         ROR A
EC84  29 C0                      AND #$C0     
EC86  A8                         TAY 
EC87  60                         RTS 
EC88  11                         .BYTE $11
EC89  EB                         .BYTE $EB
EC8A  90                         .BYTE $90
EC8B  EA                         .BYTE $EA
EC8C  D1                         .BYTE $D1
EC8D  EA                         .BYTE $EA
EC8E  A2 01                      LDX #1       ;APPEND?, DRETRI?, SUCCES?
EC90  A0 FF                      LDY #$FF     ;IOCFRE?
EC92  88                         DEY 
EC93  D0 FD                      BNE $EC92
EC95  CA                         DEX 
EC96  D0 F8                      BNE $EC90
EC98  20 6B EA                   JSR SEND
EC9B  A0 02                      LDY #2       ;CBUFHI?, CTIMLO?, DIRECT?, LEDGE?, TEMPHI?
EC9D  A2 00                      LDX #0       ;B192HI?, CTIMHI?, RADON?, RIRGHI?, WIRGHI?
EC9F  20 BD ED                   JSR $EDBD
ECA2  20 1A EA                   JSR $EA1A
ECA5  98                         TYA 
ECA6  60                         RTS 
ECA7  8D 10 03  COMPUT           STA TIMER2
ECAA  8C 11 03                   STY TIMER2+1
ECAD  20 08 ED                   JSR $ED08
ECB0  8D 10 03                   STA TIMER2
ECB3  AD 0C 03                   LDA TIMER1
ECB6  20 08 ED                   JSR $ED08
ECB9  8D 0C 03                   STA TIMER1
ECBC  AD 10 03                   LDA TIMER2
ECBF  38                         SEC 
ECC0  ED 0C 03                   SBC TIMER1
ECC3  8D 12 03                   STA TEMP1
ECC6  AD 11 03                   LDA TIMER2+1
ECC9  38                         SEC 
ECCA  ED 0D 03                   SBC TIMER1+1
ECCD  A8                         TAY 
ECCE  A9 64                      LDA #$64     
ECD0  18                         CLC 
ECD1  69 9C                      ADC #$9C     
ECD3  88                         DEY 
ECD4  10 FA                      BPL $ECD0
ECD6  18                         CLC 
ECD7  6D 12 03                   ADC TEMP1
ECDA  A8                         TAY 
ECDB  4A                         LSR A
ECDC  4A                         LSR A
ECDD  4A                         LSR A
ECDE  0A                         ASL A
ECDF  38                         SEC 
ECE0  E9 16                      SBC #$16     
ECE2  AA                         TAX 
ECE3  98                         TYA 
ECE4  29 07                      AND #7       ;GETCHR?, LOTONE?
ECE6  A8                         TAY 
ECE7  A9 F5                      LDA #$F5     
ECE9  18                         CLC 
ECEA  69 0B                      ADC #$0B     ;PUTCHR?
ECEC  88                         DEY 
ECED  10 FA                      BPL $ECE9
ECEF  A0 00                      LDY #0       ;B192HI?, CTIMHI?, RADON?, RIRGHI?, WIRGHI?
ECF1  8C 0E 03                   STY ADDCOR
ECF4  38                         SEC 
ECF5  E9 07                      SBC #7       ;GETCHR?, LOTONE?
ECF7  10 03                      BPL $ECFC
ECF9  CE 0E 03                   DEC ADDCOR
ECFC  18                         CLC 
ECFD  7D D2 ED                   ADC $EDD2,X
ED00  A8                         TAY 
ED01  AD 0E 03                   LDA ADDCOR
ED04  7D D3 ED                   ADC $EDD3,X
ED07  60                         RTS 
ED08  C9 7C                      CMP #$7C     
ED0A  30 04                      BMI $ED10
ED0C  38                         SEC 
ED0D  E9 7C                      SBC #$7C     
ED0F  60                         RTS 
ED10  18                         CLC 
ED11  69 20                      ADC #$20     ;INSCLR?, RENAME?
ED13  60                         RTS 
ED14  A5 11                      LDA BRKKEY
ED16  D0 03                      BNE $ED1B
ED18  4C A4 ED                   JMP $EDA4
ED1B  78                         SEI 
ED1C  AD 17 03                   LDA TIMFLG
ED1F  D0 02                      BNE $ED23
ED21  F0 25                      BEQ $ED48
ED23  AD 0F D2                   LDA SKSTAT
ED26  29 10                      AND #$10     ;IOCBSZ?, MXDMOD?
ED28  D0 EA                      BNE $ED14
ED2A  8D 16 03                   STA SAVIO
ED2D  AE 0B D4                   LDX VCOUNT
ED30  A4 14                      LDY RTCLOK+2
ED32  8E 0C 03                   STX TIMER1
ED35  8C 0D 03                   STY TIMER1+1
ED38  A2 01                      LDX #1       ;APPEND?, DRETRI?, SUCCES?
ED3A  8E 15 03                   STX TEMP3
ED3D  A0 0A                      LDY #$0A     ;RSIRG?
ED3F  A5 11                      LDA BRKKEY
ED41  F0 61                      BEQ $EDA4
ED43  AD 17 03                   LDA TIMFLG
ED46  D0 04                      BNE $ED4C
ED48  58                         CLI 
ED49  4C 0C EB                   JMP $EB0C
ED4C  AD 0F D2                   LDA SKSTAT
ED4F  29 10                      AND #$10     ;IOCBSZ?, MXDMOD?
ED51  CD 16 03                   CMP SAVIO
ED54  F0 E9                      BEQ $ED3F
ED56  8D 16 03                   STA SAVIO
ED59  88                         DEY 
ED5A  D0 E3                      BNE $ED3F
ED5C  CE 15 03                   DEC TEMP3
ED5F  30 12                      BMI $ED73
ED61  AD 0B D4                   LDA VCOUNT
ED64  A4 14                      LDY RTCLOK+2
ED66  20 A7 EC                   JSR COMPUT
ED69  8C EE 02                   STY CBAUDL
ED6C  8D EF 02                   STA CBAUDH
ED6F  A0 09                      LDY #9       ;PUTREC?
ED71  D0 CC                      BNE $ED3F
ED73  AD EE 02                   LDA CBAUDL
ED76  8D 04 D2                   STA AUDF3
ED79  AD EF 02                   LDA CBAUDH
ED7C  8D 06 D2                   STA AUDF4
ED7F  A9 00                      LDA #0       ;B192HI?, CTIMHI?, RADON?, RIRGHI?, WIRGHI?
ED81  8D 0F D2                   STA SKCTL
ED84  AD 32 02                   LDA SSKCTL
ED87  8D 0F D2                   STA SKCTL
ED8A  A9 55                      LDA #$55     
ED8C  91 32                      STA (BUFRLO),Y
ED8E  C8                         INY 
ED8F  91 32                      STA (BUFRLO),Y
ED91  A9 AA                      LDA #$AA     
ED93  85 31                      STA CHKSUM
ED95  18                         CLC 
ED96  A5 32                      LDA BUFRLO
ED98  69 02                      ADC #2       ;CBUFHI?, CTIMLO?, DIRECT?, LEDGE?, TEMPHI?
ED9A  85 32                      STA BUFRLO
ED9C  A5 33                      LDA BUFRHI
ED9E  69 00                      ADC #0       ;B192HI?, CTIMHI?, RADON?, RIRGHI?, WIRGHI?
EDA0  85 33                      STA BUFRHI
EDA2  58                         CLI 
EDA3  60                         RTS 
EDA4  20 63 EC                   JSR $EC63
EDA7  A9 3C                      LDA #$3C     ;MOTRST?, NCOMHI?
EDA9  8D 02 D3                   STA PACTL
EDAC  8D 03 D3                   STA PBCTL
EDAF  A9 80                      LDA #$80     ;BRKABT?, MAXIOC?
EDB1  85 30                      STA STATUS
EDB3  AE 18 03                   LDX STACKP
EDB6  9A                         TXS 
EDB7  C6 11                      DEC BRKKEY
EDB9  58                         CLI 
EDBA  4C 0D EA                   JMP $EA0D
EDBD  A9 F0                      LDA #$F0     
EDBF  8D 26 02                   STA CDTMA1
EDC2  A9 EB                      LDA #$EB     
EDC4  8D 27 02                   STA CDTMA1+1
EDC7  A9 01                      LDA #1       ;APPEND?, DRETRI?, SUCCES?
EDC9  8D 17 03                   STA TIMFLG
EDCC  78                         SEI 
EDCD  20 5C E4                   JSR SETVBV
EDD0  58                         CLI 
EDD1  60                         RTS 
EDD2  E8                         .BYTE $E8
EDD3  03                         .BYTE $03
EDD4  43                         .BYTE $43
EDD5  04                         .BYTE $04
EDD6  9E                         .BYTE $9E
EDD7  04                         .BYTE $04
EDD8  F9                         .BYTE $F9
EDD9  04                         .BYTE $04
EDDA  54                         .BYTE $54
EDDB  05                         .BYTE $05
EDDC  AF                         .BYTE $AF
EDDD  05                         .BYTE $05
EDDE  0A                         .BYTE $0A
EDDF  06                         .BYTE $06
EDE0  65                         .BYTE $65
EDE1  06                         .BYTE $06
EDE2  C0                         .BYTE $C0
EDE3  06                         .BYTE $06
EDE4  1A                         .BYTE $1A
EDE5  07                         .BYTE $07
EDE6  75                         .BYTE $75
EDE7  07                         .BYTE $07
EDE8  D0                         .BYTE $D0
EDE9  07                         .BYTE $07
EDEA  A9 A0     DSKORG           LDA #$A0     
EDEC  8D 46 02                   STA DSKTIM
EDEF  60                         RTS 
EDF0  A9 31                      LDA #$31     
EDF2  8D 00 03                   STA DDEVIC
EDF5  AD 46 02                   LDA DSKTIM
EDF8  AE 02 03                   LDX DCOMND
EDFB  E0 21                      CPX #$21     ;DELETE?
EDFD  F0 02                      BEQ $EE01
EDFF  A9 07                      LDA #7       ;GETCHR?, LOTONE?
EE01  8D 06 03                   STA DTIMLO
EE04  A2 40                      LDX #$40     
EE06  A0 80                      LDY #$80     ;BRKABT?, MAXIOC?
EE08  AD 02 03                   LDA DCOMND
EE0B  C9 57                      CMP #$57     ;WRITE?
EE0D  D0 02                      BNE $EE11
EE0F  A2 80                      LDX #$80     ;BRKABT?, MAXIOC?
EE11  C9 53                      CMP #$53     ;DISPLY?, SIDWAY?
EE13  D0 0C                      BNE $EE21
EE15  A9 EA                      LDA #$EA     
EE17  8D 04 03                   STA DBUFLO
EE1A  A9 02                      LDA #2       ;CBUFHI?, CTIMLO?, DIRECT?, LEDGE?, TEMPHI?
EE1C  8D 05 03                   STA DBUFHI
EE1F  A0 04                      LDY #4       ;OPNIN?
EE21  8E 03 03                   STX DSTATS
EE24  8C 08 03                   STY DBYTLO
EE27  A9 00                      LDA #0       ;B192HI?, CTIMHI?, RADON?, RIRGHI?, WIRGHI?
EE29  8D 09 03                   STA DBYTHI
EE2C  20 59 E4                   JSR SIOV
EE2F  10 01                      BPL $EE32
EE31  60                         RTS 
EE32  AD 02 03                   LDA DCOMND
EE35  C9 53                      CMP #$53     ;DISPLY?, SIDWAY?
EE37  D0 0A                      BNE $EE43
EE39  20 6D EE                   JSR $EE6D
EE3C  A0 02                      LDY #2       ;CBUFHI?, CTIMLO?, DIRECT?, LEDGE?, TEMPHI?
EE3E  B1 15                      LDA (BUFADR),Y
EE40  8D 46 02                   STA DSKTIM
EE43  AD 02 03                   LDA DCOMND
EE46  C9 21                      CMP #$21     ;DELETE?
EE48  D0 1F                      BNE $EE69
EE4A  20 6D EE                   JSR $EE6D
EE4D  A0 FE                      LDY #$FE     
EE4F  C8                         INY 
EE50  C8                         INY 
EE51  B1 15                      LDA (BUFADR),Y
EE53  C9 FF                      CMP #$FF     ;IOCFRE?
EE55  D0 F8                      BNE $EE4F
EE57  C8                         INY 
EE58  B1 15                      LDA (BUFADR),Y
EE5A  C8                         INY 
EE5B  C9 FF                      CMP #$FF     ;IOCFRE?
EE5D  D0 F2                      BNE $EE51
EE5F  88                         DEY 
EE60  88                         DEY 
EE61  8C 08 03                   STY DBYTLO
EE64  A9 00                      LDA #0       ;B192HI?, CTIMHI?, RADON?, RIRGHI?, WIRGHI?
EE66  8D 09 03                   STA DBYTHI
EE69  AC 03 03                   LDY DSTATS
EE6C  60                         RTS 
EE6D  AD 04 03                   LDA DBUFLO
EE70  85 15                      STA BUFADR
EE72  AD 05 03                   LDA DBUFHI
EE75  85 16                      STA BUFADR+1
EE77  60                         RTS 
EE78  A9 1E     PRNORG           LDA #$1E     
EE7A  85 1C                      STA PTIMOT
EE7C  60                         RTS 
EE7D  EA                         .BYTE $EA
EE7E  02                         .BYTE $02
EE7F  C0                         .BYTE $C0
EE80  03                         .BYTE $03
EE81  A9 04                      LDA #4       ;OPNIN?
EE83  85 1E                      STA PBUFSZ
EE85  AE 7D EE                   LDX $EE7D
EE88  AC 7E EE                   LDY $EE7E
EE8B  A9 53                      LDA #$53     ;DISPLY?, SIDWAY?
EE8D  8D 02 03                   STA DCOMND
EE90  8D 0A 03                   STA DAUX1
EE93  20 E6 EE                   JSR $EEE6
EE96  20 59 E4                   JSR SIOV
EE99  30 03                      BMI $EE9E
EE9B  20 14 EF                   JSR $EF14
EE9E  60                         RTS 
EE9F  20 81 EE                   JSR $EE81
EEA2  A9 00                      LDA #0       ;B192HI?, CTIMHI?, RADON?, RIRGHI?, WIRGHI?
EEA4  85 1D                      STA PBPNT
EEA6  60                         RTS 
EEA7  85 1F                      STA PTEMP
EEA9  20 1A EF                   JSR $EF1A
EEAC  A6 1D                      LDX PBPNT
EEAE  A5 1F                      LDA PTEMP
EEB0  9D C0 03                   STA PRNBUF,X
EEB3  E8                         INX 
EEB4  E4 1E                      CPX PBUFSZ
EEB6  F0 13                      BEQ $EECB
EEB8  86 1D                      STX PBPNT
EEBA  C9 9B                      CMP #$9B     ;CR?, EOL?
EEBC  F0 03                      BEQ $EEC1
EEBE  A0 01                      LDY #1       ;APPEND?, DRETRI?, SUCCES?
EEC0  60                         RTS 
EEC1  A9 20                      LDA #$20     ;INSCLR?, RENAME?
EEC3  9D C0 03                   STA PRNBUF,X
EEC6  E8                         INX 
EEC7  E4 1E                      CPX PBUFSZ
EEC9  D0 F8                      BNE $EEC3
EECB  A9 00                      LDA #0       ;B192HI?, CTIMHI?, RADON?, RIRGHI?, WIRGHI?
EECD  85 1D                      STA PBPNT
EECF  AE 7F EE                   LDX $EE7F
EED2  AC 80 EE                   LDY $EE80
EED5  20 E6 EE                   JSR $EEE6
EED8  20 59 E4                   JSR SIOV
EEDB  60                         RTS 
EEDC  20 1A EF                   JSR $EF1A
EEDF  A6 1D                      LDX PBPNT
EEE1  D0 DE                      BNE $EEC1
EEE3  A0 01                      LDY #1       ;APPEND?, DRETRI?, SUCCES?
EEE5  60                         RTS 
EEE6  8E 04 03                   STX DBUFLO
EEE9  8C 05 03                   STY DBUFHI
EEEC  A9 40                      LDA #$40     
EEEE  8D 00 03                   STA DDEVIC
EEF1  A9 01                      LDA #1       ;APPEND?, DRETRI?, SUCCES?
EEF3  8D 01 03                   STA DUNIT
EEF6  A9 80                      LDA #$80     ;BRKABT?, MAXIOC?
EEF8  AE 02 03                   LDX DCOMND
EEFB  E0 53                      CPX #$53     ;DISPLY?, SIDWAY?
EEFD  D0 02                      BNE $EF01
EEFF  A9 40                      LDA #$40     
EF01  8D 03 03                   STA DSTATS
EF04  A5 1E                      LDA PBUFSZ
EF06  8D 08 03                   STA DBYTLO
EF09  A9 00                      LDA #0       ;B192HI?, CTIMHI?, RADON?, RIRGHI?, WIRGHI?
EF0B  8D 09 03                   STA DBYTHI
EF0E  A5 1C                      LDA PTIMOT
EF10  8D 06 03                   STA DTIMLO
EF13  60                         RTS 
EF14  AD EC 02                   LDA DVSTAT+2
EF17  85 1C                      STA PTIMOT
EF19  60                         RTS 
EF1A  A0 57                      LDY #$57     ;WRITE?
EF1C  A5 2B                      LDA ICAX2Z
EF1E  C9 4E                      CMP #$4E     ;NACK?, NORMAL?
EF20  D0 04                      BNE $EF26
EF22  A2 28                      LDX #$28     ;B192LO?
EF24  D0 0E                      BNE $EF34
EF26  C9 44                      CMP #$44     ;DISK?, DOUBLE?
EF28  D0 04                      BNE $EF2E
EF2A  A2 14                      LDX #$14     
EF2C  D0 06                      BNE $EF34
EF2E  C9 53                      CMP #$53     ;DISPLY?, SIDWAY?
EF30  D0 0B                      BNE $EF3D
EF32  A2 1D                      LDX #$1D     
EF34  86 1E                      STX PBUFSZ
EF36  8C 02 03                   STY DCOMND
EF39  8D 0A 03                   STA DAUX1
EF3C  60                         RTS 
EF3D  A9 4E                      LDA #$4E     ;NACK?, NORMAL?
EF3F  D0 DD                      BNE $EF1E
EF41  A9 CC     CASORG           LDA #$CC     ;B600LO?
EF43  8D EE 02                   STA CBAUDL
EF46  A9 05                      LDA #5       ;B600HI?, GETREC?, HITONE?
EF48  8D EF 02                   STA CBAUDH
EF4B  60                         RTS 
EF4C  A5 2B                      LDA ICAX2Z
EF4E  85 3E                      STA FTYPE
EF50  A5 2A                      LDA ICAX1Z
EF52  29 0C                      AND #$0C     ;CLOSE?, OPNINO?
EF54  C9 04                      CMP #4       ;OPNIN?
EF56  F0 05                      BEQ $EF5D
EF58  C9 08                      CMP #8       ;OPNOT?
EF5A  F0 39                      BEQ $EF95
EF5C  60                         RTS 
EF5D  A9 00                      LDA #0       ;B192HI?, CTIMHI?, RADON?, RIRGHI?, WIRGHI?
EF5F  8D 89 02                   STA WMODE
EF62  85 3F                      STA FEOF
EF64  A9 01                      LDA #1       ;APPEND?, DRETRI?, SUCCES?
EF66  20 58 F0                   JSR $F058
EF69  30 24                      BMI $EF8F
EF6B  A9 34                      LDA #$34     ;MOTRGO?, NCOMLO?
EF6D  8D 02 D3                   STA PACTL
EF70  A0 E0                      LDY #$E0     
EF72  A2 01                      LDX #1       ;APPEND?, DRETRI?, SUCCES?
EF74  A9 03                      LDA #3       ;OPEN?
EF76  8D 2A 02                   STA CDTMF3
EF79  20 5C E4                   JSR SETVBV
EF7C  AD 2A 02                   LDA CDTMF3
EF7F  D0 FB                      BNE $EF7C
EF81  A9 80                      LDA #$80     ;BRKABT?, MAXIOC?
EF83  85 3D                      STA BPTR
EF85  8D 8A 02                   STA BLIM
EF88  4C D3 EF                   JMP $EFD3
EF8B  A0 80                      LDY #$80     ;BRKABT?, MAXIOC?
EF8D  C6 11                      DEC BRKKEY
EF8F  A9 00                      LDA #0       ;B192HI?, CTIMHI?, RADON?, RIRGHI?, WIRGHI?
EF91  8D 89 02                   STA WMODE
EF94  60                         RTS 
EF95  A9 80                      LDA #$80     ;BRKABT?, MAXIOC?
EF97  8D 89 02                   STA WMODE
EF9A  A9 02                      LDA #2       ;CBUFHI?, CTIMLO?, DIRECT?, LEDGE?, TEMPHI?
EF9C  20 58 F0                   JSR $F058
EF9F  30 EE                      BMI $EF8F
EFA1  A9 CC                      LDA #$CC     ;B600LO?
EFA3  8D 04 D2                   STA AUDF3
EFA6  A9 05                      LDA #5       ;B600HI?, GETREC?, HITONE?
EFA8  8D 06 D2                   STA AUDF4
EFAB  A9 60                      LDA #$60     ;CASET?
EFAD  8D 00 03                   STA DDEVIC
EFB0  20 68 E4                   JSR SENDEV
EFB3  A9 34                      LDA #$34     ;MOTRGO?, NCOMLO?
EFB5  8D 02 D3                   STA PACTL
EFB8  A9 03                      LDA #3       ;OPEN?
EFBA  A2 03                      LDX #3       ;OPEN?
EFBC  A0 C0                      LDY #$C0     
EFBE  20 5C E4                   JSR SETVBV
EFC1  A9 FF                      LDA #$FF     ;IOCFRE?
EFC3  8D 2A 02                   STA CDTMF3
EFC6  A5 11                      LDA BRKKEY
EFC8  F0 C1                      BEQ $EF8B
EFCA  AD 2A 02                   LDA CDTMF3
EFCD  D0 F7                      BNE $EFC6
EFCF  A9 00                      LDA #0       ;B192HI?, CTIMHI?, RADON?, RIRGHI?, WIRGHI?
EFD1  85 3D                      STA BPTR
EFD3  A0 01                      LDY #1       ;APPEND?, DRETRI?, SUCCES?
EFD5  60                         RTS 
EFD6  A5 3F                      LDA FEOF
EFD8  30 33                      BMI $F00D
EFDA  A6 3D                      LDX BPTR
EFDC  EC 8A 02                   CPX BLIM
EFDF  F0 08                      BEQ $EFE9
EFE1  BD 00 04                   LDA $0400,X
EFE4  E6 3D                      INC BPTR
EFE6  A0 01                      LDY #1       ;APPEND?, DRETRI?, SUCCES?
EFE8  60                         RTS 
EFE9  A9 52                      LDA #$52     ;READ?
EFEB  20 95 F0                   JSR $F095
EFEE  98                         TYA 
EFEF  30 F7                      BMI $EFE8
EFF1  A9 00                      LDA #0       ;B192HI?, CTIMHI?, RADON?, RIRGHI?, WIRGHI?
EFF3  85 3D                      STA BPTR
EFF5  A2 80                      LDX #$80     ;BRKABT?, MAXIOC?
EFF7  AD FF 03                   LDA $03FF
EFFA  C9 FE                      CMP #$FE     
EFFC  F0 0D                      BEQ $F00B
EFFE  C9 FA                      CMP #$FA     
F000  D0 03                      BNE $F005
F002  AE 7F 04                   LDX $047F
F005  8E 8A 02                   STX BLIM
F008  4C D6 EF                   JMP $EFD6
F00B  C6 3F                      DEC FEOF
F00D  A0 88                      LDY #$88     ;EOFERR?
F00F  60                         RTS 
F010  A6 3D                      LDX BPTR
F012  9D 00 04                   STA $0400,X
F015  E6 3D                      INC BPTR
F017  A0 01                      LDY #1       ;APPEND?, DRETRI?, SUCCES?
F019  E0 7F                      CPX #$7F     
F01B  F0 01                      BEQ $F01E
F01D  60                         RTS 
F01E  A9 FC                      LDA #$FC     
F020  20 D2 F0                   JSR $F0D2
F023  A9 00                      LDA #0       ;B192HI?, CTIMHI?, RADON?, RIRGHI?, WIRGHI?
F025  85 3D                      STA BPTR
F027  60                         RTS 
F028  A0 01                      LDY #1       ;APPEND?, DRETRI?, SUCCES?
F02A  60                         RTS 
F02B  AD 89 02                   LDA WMODE
F02E  30 08                      BMI $F038
F030  A0 01                      LDY #1       ;APPEND?, DRETRI?, SUCCES?
F032  A9 3C                      LDA #$3C     ;MOTRST?, NCOMHI?
F034  8D 02 D3                   STA PACTL
F037  60                         RTS 
F038  A6 3D                      LDX BPTR
F03A  F0 0A                      BEQ $F046
F03C  8E 7F 04                   STX $047F
F03F  A9 FA                      LDA #$FA     
F041  20 D2 F0                   JSR $F0D2
F044  30 EC                      BMI $F032
F046  A2 7F                      LDX #$7F     
F048  A9 00                      LDA #0       ;B192HI?, CTIMHI?, RADON?, RIRGHI?, WIRGHI?
F04A  9D 00 04                   STA $0400,X
F04D  CA                         DEX 
F04E  10 FA                      BPL $F04A
F050  A9 FE                      LDA #$FE     
F052  20 D2 F0                   JSR $F0D2
F055  4C 32 F0                   JMP $F032
F058  85 40                      STA FREQ
F05A  A5 14                      LDA RTCLOK+2
F05C  18                         CLC 
F05D  69 19                      ADC #$19     
F05F  AA                         TAX 
F060  A9 FF                      LDA #$FF     ;IOCFRE?
F062  8D 1F D0                   STA CONSOL
F065  A9 00                      LDA #0       ;B192HI?, CTIMHI?, RADON?, RIRGHI?, WIRGHI?
F067  A0 F0                      LDY #$F0     
F069  88                         DEY 
F06A  D0 FD                      BNE $F069
F06C  8D 1F D0                   STA CONSOL
F06F  A0 F0                      LDY #$F0     
F071  88                         DEY 
F072  D0 FD                      BNE $F071
F074  E4 14                      CPX RTCLOK+2
F076  D0 E8                      BNE $F060
F078  C6 40                      DEC FREQ
F07A  F0 0B                      BEQ $F087
F07C  8A                         TXA 
F07D  18                         CLC 
F07E  69 08                      ADC #8       ;OPNOT?
F080  AA                         TAX 
F081  E4 14                      CPX RTCLOK+2
F083  D0 FC                      BNE $F081
F085  F0 D3                      BEQ $F05A
F087  20 8C F0                   JSR $F08C
F08A  98                         TYA 
F08B  60                         RTS 
F08C  AD 25 E4                   LDA $E425
F08F  48                         PHA 
F090  AD 24 E4                   LDA $E424
F093  48                         PHA 
F094  60                         RTS 
F095  8D 02 03                   STA DCOMND
F098  A9 00                      LDA #0       ;B192HI?, CTIMHI?, RADON?, RIRGHI?, WIRGHI?
F09A  8D 09 03                   STA DBYTHI
F09D  A9 83                      LDA #$83     ;WRONLY?
F09F  8D 08 03                   STA DBYTLO
F0A2  A9 03                      LDA #3       ;OPEN?
F0A4  8D 05 03                   STA DBUFHI
F0A7  A9 FD                      LDA #$FD     
F0A9  8D 04 03                   STA DBUFLO
F0AC  A9 60                      LDA #$60     ;CASET?
F0AE  8D 00 03                   STA DDEVIC
F0B1  A9 00                      LDA #0       ;B192HI?, CTIMHI?, RADON?, RIRGHI?, WIRGHI?
F0B3  8D 01 03                   STA DUNIT
F0B6  A9 23                      LDA #$23     ;LOCKFL?
F0B8  8D 06 03                   STA DTIMLO
F0BB  AD 02 03                   LDA DCOMND
F0BE  A0 40                      LDY #$40     
F0C0  C9 52                      CMP #$52     ;READ?
F0C2  F0 02                      BEQ $F0C6
F0C4  A0 80                      LDY #$80     ;BRKABT?, MAXIOC?
F0C6  8C 03 03                   STY DSTATS
F0C9  A5 3E                      LDA FTYPE
F0CB  8D 0B 03                   STA DAUX2
F0CE  20 59 E4                   JSR SIOV
F0D1  60                         RTS 
F0D2  8D FF 03                   STA $03FF
F0D5  A9 55                      LDA #$55     
F0D7  8D FD 03                   STA CASBUF
F0DA  8D FE 03                   STA $03FE
F0DD  A9 57                      LDA #$57     ;WRITE?
F0DF  20 95 F0                   JSR $F095
F0E2  60                         RTS 
F0E3  50        TBLENT           .BYTE $50
F0E4  30                         .BYTE $30
F0E5  E4                         .BYTE $E4
F0E6  43                         .BYTE $43
F0E7  40                         .BYTE $40
F0E8  E4                         .BYTE $E4
F0E9  45                         .BYTE $45
F0EA  00                         .BYTE $00
F0EB  E4                         .BYTE $E4
F0EC  53                         .BYTE $53
F0ED  10                         .BYTE $10
F0EE  E4                         .BYTE $E4
F0EF  4B                         .BYTE $4B
F0F0  20                         .BYTE $20
F0F1  E4                         .BYTE $E4
F0F2  7D                         .BYTE $7D
F0F3  41                         .BYTE $41
F0F4  54                         .BYTE $54
F0F5  41                         .BYTE $41
F0F6  52                         .BYTE $52
F0F7  49                         .BYTE $49
F0F8  20                         .BYTE $20
F0F9  43                         .BYTE $43
F0FA  4F                         .BYTE $4F
F0FB  4D                         .BYTE $4D
F0FC  50                         .BYTE $50
F0FD  55                         .BYTE $55
F0FE  54                         .BYTE $54
F0FF  45                         .BYTE $45
F100  52                         .BYTE $52
F101  20                         .BYTE $20
F102  2D                         .BYTE $2D
F103  20                         .BYTE $20
F104  4D                         .BYTE $4D
F105  45                         .BYTE $45
F106  4D                         .BYTE $4D
F107  4F                         .BYTE $4F
F108  20                         .BYTE $20
F109  50                         .BYTE $50
F10A  41                         .BYTE $41
F10B  44                         .BYTE $44
F10C  9B                         .BYTE $9B
F10D  42                         .BYTE $42
F10E  4F                         .BYTE $4F
F10F  4F                         .BYTE $4F
F110  54                         .BYTE $54
F111  20                         .BYTE $20
F112  45                         .BYTE $45
F113  52                         .BYTE $52
F114  52                         .BYTE $52
F115  4F                         .BYTE $4F
F116  52                         .BYTE $52
F117  9B                         .BYTE $9B
F118  45                         .BYTE $45
F119  3A                         .BYTE $3A
F11A  9B                         .BYTE $9B
F11B  78        RESET            SEI 
F11C  AD 44 02                   LDA COLDST
F11F  D0 04                      BNE PWRUP
F121  A9 FF                      LDA #$FF     ;IOCFRE?
F123  D0 03                      BNE PWRUP1
F125  78        PWRUP            SEI 
F126  A9 00                      LDA #0       ;B192HI?, CTIMHI?, RADON?, RIRGHI?, WIRGHI?
F128  85 08     PWRUP1           STA WARMST
F12A  D8                         CLD 
F12B  A2 FF                      LDX #$FF     ;IOCFRE?
F12D  9A                         TXS 
F12E  20 3F F2                   JSR SPECL
F131  20 81 F2                   JSR HARDI
F134  A5 08                      LDA WARMST
F136  D0 28                      BNE ZOSRAM
F138  A9 00                      LDA #0       ;B192HI?, CTIMHI?, RADON?, RIRGHI?, WIRGHI?
F13A  A0 08                      LDY #8       ;OPNOT?
F13C  85 04                      STA RAMLO
F13E  85 05                      STA RAMLO+1
F140  91 04     CLRRAM           STA (RAMLO),Y
F142  C8                         INY 
F143  C0 00                      CPY #0       ;B192HI?, CTIMHI?, RADON?, RIRGHI?, WIRGHI?
F145  D0 F9                      BNE CLRRAM
F147  E6 05                      INC RAMLO+1
F149  A6 05                      LDX RAMLO+1
F14B  E4 06                      CPX TRAMSZ
F14D  D0 F1                      BNE CLRRAM
F14F  AD 72 E4                   LDA BLKBDV+1
F152  85 0A                      STA DOSVEC
F154  AD 73 E4                   LDA BLKBDV+2
F157  85 0B                      STA DOSVEC+1
F159  A9 FF                      LDA #$FF     ;IOCFRE?
F15B  8D 44 02                   STA COLDST
F15E  D0 13                      BNE ESTSCM
F160  A2 00     ZOSRAM           LDX #0       ;B192HI?, CTIMHI?, RADON?, RIRGHI?, WIRGHI?
F162  8A                         TXA 
F163  9D 00 02  ZOSRM2           STA VDSLST,X
F166  9D 00 03                   STA DDEVIC,X
F169  CA                         DEX 
F16A  D0 F7                      BNE ZOSRM2
F16C  A2 10                      LDX #$10     ;IOCBSZ?, MXDMOD?
F16E  95 00     ZOSRM3           STA LINZBS,X
F170  E8                         INX 
F171  10 FB                      BPL ZOSRM3
F173  A9 02     ESTSCM           LDA #2       ;CBUFHI?, CTIMLO?, DIRECT?, LEDGE?, TEMPHI?
F175  85 52                      STA LMARGN
F177  A9 27                      LDA #$27     ;REDGE?
F179  85 53                      STA RMARGN
F17B  A2 25                      LDX #$25     ;POINT?
F17D  BD 80 E4  MOVVEC           LDA VCTABL,X
F180  9D 00 02                   STA VDSLST,X
F183  CA                         DEX 
F184  10 F7                      BPL MOVVEC
F186  20 94 F2                   JSR OSRAM
F189  58                         CLI 
F18A  A2 0E                      LDX #$0E     ;SPECIL?
F18C  BD E3 F0  NXTENT           LDA TBLENT,X
F18F  9D 1A 03                   STA HATABS,X
F192  CA                         DEX 
F193  10 F7                      BPL NXTENT
F195  A2 00                      LDX #0       ;B192HI?, CTIMHI?, RADON?, RIRGHI?, WIRGHI?
F197  86 07                      STX TSTDAT
F199  86 06                      STX TRAMSZ
F19B  AE E4 02                   LDX RAMSIZ
F19E  E0 90                      CPX #$90     ;DERROR?
F1A0  B0 0A                      BCS ENDBCK
F1A2  AD FC 9F                   LDA $9FFC
F1A5  D0 05                      BNE ENDBCK
F1A7  E6 07                      INC TSTDAT
F1A9  20 3C F2                   JSR CBINI
F1AC  AE E4 02  ENDBCK           LDX RAMSIZ
F1AF  E0 B0                      CPX #$B0     
F1B1  B0 0A                      BCS ENDACK
F1B3  AE FC BF                   LDX CART
F1B6  D0 05                      BNE ENDACK
F1B8  E6 06                      INC TRAMSZ
F1BA  20 39 F2                   JSR CAINI
F1BD  A9 03     ENDACK           LDA #3       ;OPEN?
F1BF  A2 00                      LDX #0       ;B192HI?, CTIMHI?, RADON?, RIRGHI?, WIRGHI?
F1C1  9D 42 03                   STA ICCOM,X
F1C4  A9 18                      LDA #$18     
F1C6  9D 44 03                   STA ICBAL,X
F1C9  A9 F1                      LDA #$F1     
F1CB  9D 45 03                   STA ICBAH,X
F1CE  A9 0C                      LDA #$0C     ;CLOSE?, OPNINO?
F1D0  9D 4A 03                   STA ICAX1,X
F1D3  20 56 E4                   JSR CIOV
F1D6  10 03                      BPL SCRNOK
F1D8  4C 25 F1                   JMP PWRUP
F1DB  E8        SCRNOK           INX 
F1DC  D0 FD                      BNE SCRNOK
F1DE  C8                         INY 
F1DF  10 FA                      BPL SCRNOK
F1E1  20 B2 F3                   JSR $F3B2
F1E4  A5 06                      LDA TRAMSZ
F1E6  05 07                      ORA TSTDAT
F1E8  F0 12                      BEQ $F1FC
F1EA  A5 06                      LDA TRAMSZ
F1EC  F0 03                      BEQ $F1F1
F1EE  AD FD BF                   LDA $BFFD
F1F1  A6 07                      LDX TSTDAT
F1F3  F0 03                      BEQ $F1F8
F1F5  0D FD 9F                   ORA $9FFD
F1F8  29 01                      AND #1       ;APPEND?, DRETRI?, SUCCES?
F1FA  F0 03                      BEQ $F1FF
F1FC  20 CF F2                   JSR BOOT
F1FF  A9 00                      LDA #0       ;B192HI?, CTIMHI?, RADON?, RIRGHI?, WIRGHI?
F201  8D 44 02                   STA COLDST
F204  A5 06                      LDA TRAMSZ
F206  F0 0A                      BEQ $F212
F208  AD FD BF                   LDA $BFFD
F20B  29 04                      AND #4       ;OPNIN?
F20D  F0 03                      BEQ $F212
F20F  6C FA BF                   JMP ($BFFA)
F212  A5 07                      LDA TSTDAT
F214  F0 0A                      BEQ $F220
F216  AD FD 9F                   LDA $9FFD
F219  29 04                      AND #4       ;OPNIN?
F21B  F0 DF                      BEQ $F1FC
F21D  6C FA 9F                   JMP ($9FFA)
F220  6C 0A 00                   JMP (DOSVEC)
F223  A2 F2                      LDX #$F2     
F225  A0 F0                      LDY #$F0     
F227  20 85 F3                   JSR $F385
F22A  20 30 F2                   JSR $F230
F22D  4C 2A F2                   JMP $F22A
F230  AD 05 E4                   LDA $E405
F233  48                         PHA 
F234  AD 04 E4                   LDA $E404
F237  48                         PHA 
F238  60                         RTS 
F239  6C FE BF  CAINI            JMP ($BFFE)
F23C  6C FE 9F  CBINI            JMP ($9FFE)
F23F  AD FC BF  SPECL            LDA CART
F242  D0 12                      BNE $F256
F244  EE FC BF                   INC CART
F247  AD FC BF                   LDA CART
F24A  D0 0A                      BNE $F256
F24C  AD FD BF                   LDA $BFFD
F24F  29 80                      AND #$80     ;BRKABT?, MAXIOC?
F251  F0 03                      BEQ $F256
F253  6C FE BF                   JMP ($BFFE)
F256  CE FC BF                   DEC CART
F259  A9 00                      LDA #0       ;B192HI?, CTIMHI?, RADON?, RIRGHI?, WIRGHI?
F25B  85 05                      STA RAMLO+1
F25D  A9 10                      LDA #$10     ;IOCBSZ?, MXDMOD?
F25F  85 06                      STA TRAMSZ
F261  A0 00                      LDY #0       ;B192HI?, CTIMHI?, RADON?, RIRGHI?, WIRGHI?
F263  B1 05                      LDA (RAMLO+1),Y
F265  85 07                      STA TSTDAT
F267  49 FF                      EOR #$FF     ;IOCFRE?
F269  85 04                      STA RAMLO
F26B  91 05                      STA (RAMLO+1),Y
F26D  B1 05                      LDA (RAMLO+1),Y
F26F  C5 04                      CMP RAMLO
F271  D0 0D                      BNE $F280
F273  A5 07                      LDA TSTDAT
F275  91 05                      STA (RAMLO+1),Y
F277  A5 06                      LDA TRAMSZ
F279  18                         CLC 
F27A  69 10                      ADC #$10     ;IOCBSZ?, MXDMOD?
F27C  85 06                      STA TRAMSZ
F27E  D0 E3                      BNE $F263
F280  60                         RTS 
F281  A9 00     HARDI            LDA #0       ;B192HI?, CTIMHI?, RADON?, RIRGHI?, WIRGHI?
F283  AA                         TAX 
F284  9D 00 D0                   STA HPOSP0,X
F287  9D 00 D4                   STA DMACTL,X
F28A  9D 00 D2                   STA AUDF1,X
F28D  9D 00 D3                   STA PORTA,X
F290  E8                         INX 
F291  D0 F1                      BNE $F284
F293  60                         RTS 
F294  C6 11     OSRAM            DEC BRKKEY
F296  A5 06                      LDA TRAMSZ
F298  8D E4 02                   STA RAMSIZ
F29B  8D E6 02                   STA MEMTOP+1
F29E  A9 00                      LDA #0       ;B192HI?, CTIMHI?, RADON?, RIRGHI?, WIRGHI?
F2A0  8D E5 02                   STA MEMTOP
F2A3  A9 00                      LDA #0       ;B192HI?, CTIMHI?, RADON?, RIRGHI?, WIRGHI?
F2A5  8D E7 02                   STA MEMLO
F2A8  A9 07                      LDA #7       ;GETCHR?, LOTONE?
F2AA  8D E8 02                   STA MEMLO+1
F2AD  20 0C E4                   JSR $E40C
F2B0  20 1C E4                   JSR $E41C
F2B3  20 2C E4                   JSR $E42C
F2B6  20 3C E4                   JSR $E43C
F2B9  20 4C E4                   JSR $E44C
F2BC  20 6E E4                   JSR CIOINV
F2BF  20 65 E4                   JSR SIOINV
F2C2  20 6B E4                   JSR INTINV
F2C5  AD 1F D0                   LDA CONSOL
F2C8  29 01                      AND #1       ;APPEND?, DRETRI?, SUCCES?
F2CA  D0 02                      BNE $F2CE
F2CC  E6 4A                      INC CKEY
F2CE  60                         RTS 
F2CF  A5 08     BOOT             LDA WARMST
F2D1  F0 0A                      BEQ $F2DD
F2D3  A5 09                      LDA BOOT?
F2D5  29 01                      AND #1       ;APPEND?, DRETRI?, SUCCES?
F2D7  F0 03                      BEQ $F2DC
F2D9  20 7E F3                   JSR DOPEN
F2DC  60                         RTS 
F2DD  A9 01                      LDA #1       ;APPEND?, DRETRI?, SUCCES?
F2DF  8D 01 03                   STA DUNIT
F2E2  A9 53                      LDA #$53     ;DISPLY?, SIDWAY?
F2E4  8D 02 03                   STA DCOMND
F2E7  20 53 E4                   JSR DSKINV
F2EA  10 01                      BPL DOBOOT
F2EC  60                         RTS 
F2ED  A9 00     DOBOOT           LDA #0       ;B192HI?, CTIMHI?, RADON?, RIRGHI?, WIRGHI?
F2EF  8D 0B 03                   STA DAUX2
F2F2  A9 01                      LDA #1       ;APPEND?, DRETRI?, SUCCES?
F2F4  8D 0A 03                   STA DAUX1
F2F7  A9 00                      LDA #0       ;B192HI?, CTIMHI?, RADON?, RIRGHI?, WIRGHI?
F2F9  8D 04 03                   STA DBUFLO
F2FC  A9 04                      LDA #4       ;OPNIN?
F2FE  8D 05 03                   STA DBUFHI
F301  20 9D F3                   JSR $F39D
F304  10 08                      BPL $F30E
F306  20 81 F3                   JSR $F381
F309  A5 4B                      LDA CASSBT
F30B  F0 E0                      BEQ DOBOOT
F30D  60                         RTS 
F30E  A2 03                      LDX #3       ;OPEN?
F310  BD 00 04                   LDA $0400,X
F313  9D 40 02                   STA DFLAGS,X
F316  CA                         DEX 
F317  10 F7                      BPL $F310
F319  AD 42 02                   LDA BOOTAD
F31C  85 04                      STA RAMLO
F31E  AD 43 02                   LDA BOOTAD+1
F321  85 05                      STA RAMLO+1
F323  AD 04 04                   LDA $0404
F326  85 0C                      STA DOSINI
F328  AD 05 04                   LDA $0405
F32B  85 0D                      STA DOSINI+1
F32D  A0 7F                      LDY #$7F     
F32F  B9 00 04                   LDA $0400,Y
F332  91 04                      STA (RAMLO),Y
F334  88                         DEY 
F335  10 F8                      BPL $F32F
F337  18                         CLC 
F338  A5 04                      LDA RAMLO
F33A  69 80                      ADC #$80     ;BRKABT?, MAXIOC?
F33C  85 04                      STA RAMLO
F33E  A5 05                      LDA RAMLO+1
F340  69 00                      ADC #0       ;B192HI?, CTIMHI?, RADON?, RIRGHI?, WIRGHI?
F342  85 05                      STA RAMLO+1
F344  CE 41 02                   DEC DBSECT
F347  F0 11                      BEQ $F35A
F349  EE 0A 03                   INC DAUX1
F34C  20 9D F3                   JSR $F39D
F34F  10 DC                      BPL $F32D
F351  20 81 F3                   JSR $F381
F354  A5 4B                      LDA CASSBT
F356  D0 AE                      BNE $F306
F358  F0 F2                      BEQ $F34C
F35A  A5 4B                      LDA CASSBT
F35C  F0 03                      BEQ $F361
F35E  20 9D F3                   JSR $F39D
F361  20 6C F3                   JSR $F36C
F364  B0 A0                      BCS $F306
F366  20 7E F3                   JSR DOPEN
F369  E6 09                      INC BOOT?
F36B  60                         RTS 
F36C  18                         CLC 
F36D  AD 42 02                   LDA BOOTAD
F370  69 06                      ADC #6       ;DEGON?
F372  85 04                      STA RAMLO
F374  AD 43 02                   LDA BOOTAD+1
F377  69 00                      ADC #0       ;B192HI?, CTIMHI?, RADON?, RIRGHI?, WIRGHI?
F379  85 05                      STA RAMLO+1
F37B  6C 04 00                   JMP (RAMLO)
F37E  6C 0C 00  DOPEN            JMP (DOSINI)
F381  A2 0D                      LDX #$0D     ;CRETRI?, STATIS?
F383  A0 F1                      LDY #$F1     
F385  8A                         TXA 
F386  A2 00                      LDX #0       ;B192HI?, CTIMHI?, RADON?, RIRGHI?, WIRGHI?
F388  9D 44 03                   STA ICBAL,X
F38B  98                         TYA 
F38C  9D 45 03                   STA ICBAH,X
F38F  A9 09                      LDA #9       ;PUTREC?
F391  9D 42 03                   STA ICCOM,X
F394  A9 FF                      LDA #$FF     ;IOCFRE?
F396  9D 48 03                   STA ICBLL,X
F399  20 56 E4                   JSR CIOV
F39C  60                         RTS 
F39D  A5 4B                      LDA CASSBT
F39F  F0 03                      BEQ $F3A4
F3A1  4C 7A E4                   JMP RBLOKV
F3A4  A9 52                      LDA #$52     ;READ?
F3A6  8D 02 03                   STA DCOMND
F3A9  A9 01                      LDA #1       ;APPEND?, DRETRI?, SUCCES?
F3AB  8D 01 03                   STA DUNIT
F3AE  20 53 E4                   JSR DSKINV
F3B1  60                         RTS 
F3B2  A5 08                      LDA WARMST
F3B4  F0 0A                      BEQ $F3C0
F3B6  A5 09                      LDA BOOT?
F3B8  29 02                      AND #2       ;CBUFHI?, CTIMLO?, DIRECT?, LEDGE?, TEMPHI?
F3BA  F0 03                      BEQ $F3BF
F3BC  20 E1 F3                   JSR $F3E1
F3BF  60                         RTS 
F3C0  A5 4A                      LDA CKEY
F3C2  F0 1C                      BEQ $F3E0
F3C4  A9 80                      LDA #$80     ;BRKABT?, MAXIOC?
F3C6  85 3E                      STA FTYPE
F3C8  E6 4B                      INC CASSBT
F3CA  20 7D E4                   JSR CSOPIV
F3CD  20 01 F3                   JSR $F301
F3D0  A9 00                      LDA #0       ;B192HI?, CTIMHI?, RADON?, RIRGHI?, WIRGHI?
F3D2  85 4B                      STA CASSBT
F3D4  85 4A                      STA CKEY
F3D6  06 09                      ASL BOOT?
F3D8  A5 0C                      LDA DOSINI
F3DA  85 02                      STA CASINI
F3DC  A5 0D                      LDA DOSINI+1
F3DE  85 03                      STA CASINI+1
F3E0  60                         RTS 
F3E1  6C 02 00                   JMP (CASINI)
F3E4  A9 FF     KBDORG           LDA #$FF     ;IOCFRE?
F3E6  8D FC 02                   STA CH
F3E9  AD E6 02                   LDA MEMTOP+1
F3EC  29 F0                      AND #$F0     
F3EE  85 6A                      STA RAMTOP
F3F0  A9 40                      LDA #$40     
F3F2  8D BE 02                   STA SHFLOK
F3F5  60                         RTS 
F3F6  A5 2B                      LDA ICAX2Z
F3F8  29 0F                      AND #$0F     ;WSIRG?
F3FA  D0 08                      BNE $F404
F3FC  A5 2A                      LDA ICAX1Z
F3FE  29 0F                      AND #$0F     ;WSIRG?
F400  85 2A                      STA ICAX1Z
F402  A9 00                      LDA #0       ;B192HI?, CTIMHI?, RADON?, RIRGHI?, WIRGHI?
F404  85 57                      STA DINDEX
F406  A9 E0                      LDA #$E0     
F408  8D F4 02                   STA CHBAS
F40B  A9 02                      LDA #2       ;CBUFHI?, CTIMLO?, DIRECT?, LEDGE?, TEMPHI?
F40D  8D F3 02                   STA CHACT
F410  8D 2F 02                   STA SDMCTL
F413  A9 01                      LDA #1       ;APPEND?, DRETRI?, SUCCES?
F415  85 4C                      STA DSTAT
F417  A9 C0                      LDA #$C0     
F419  05 10                      ORA POKMSK
F41B  85 10                      STA POKMSK
F41D  8D 0E D2                   STA IRQEN
F420  A9 00                      LDA #0       ;B192HI?, CTIMHI?, RADON?, RIRGHI?, WIRGHI?
F422  8D 93 02                   STA TINDEX
F425  85 64                      STA ADRESS
F427  85 7B                      STA SWPFLG
F429  8D F0 02                   STA CRSINH
F42C  A0 0E                      LDY #$0E     ;SPECIL?
F42E  A9 01                      LDA #1       ;APPEND?, DRETRI?, SUCCES?
F430  99 A3 02                   STA TABMAP,Y
F433  88                         DEY 
F434  10 FA                      BPL $F430
F436  A2 04                      LDX #4       ;OPNIN?
F438  BD C1 FE                   LDA $FEC1,X
F43B  9D C4 02                   STA COLOR0,X
F43E  CA                         DEX 
F43F  10 F7                      BPL $F438
F441  A4 6A                      LDY RAMTOP
F443  88                         DEY 
F444  8C 95 02                   STY TXTMSC+1
F447  A9 60                      LDA #$60     ;CASET?
F449  8D 94 02                   STA TXTMSC
F44C  A6 57                      LDX DINDEX
F44E  BD 69 FE                   LDA $FE69,X
F451  D0 04                      BNE $F457
F453  A9 91                      LDA #$91     ;BADMOD?
F455  85 4C                      STA DSTAT
F457  85 51                      STA HOLD1
F459  A5 6A                      LDA RAMTOP
F45B  85 65                      STA ADRESS+1
F45D  BC 45 FE                   LDY $FE45,X
F460  A9 28                      LDA #$28     ;B192LO?
F462  20 21 F9                   JSR $F921
F465  88                         DEY 
F466  D0 F8                      BNE $F460
F468  AD 6F 02                   LDA GPRIOR
F46B  29 3F                      AND #$3F     
F46D  85 67                      STA MLTTMP+1
F46F  A8                         TAY 
F470  E0 08                      CPX #8       ;OPNOT?
F472  90 17                      BCC $F48B
F474  8A                         TXA 
F475  6A                         ROR A
F476  6A                         ROR A
F477  6A                         ROR A
F478  29 C0                      AND #$C0     
F47A  05 67                      ORA MLTTMP+1
F47C  A8                         TAY 
F47D  A9 10                      LDA #$10     ;IOCBSZ?, MXDMOD?
F47F  20 21 F9                   JSR $F921
F482  E0 0B                      CPX #$0B     ;PUTCHR?
F484  D0 05                      BNE $F48B
F486  A9 06                      LDA #6       ;DEGON?
F488  8D C8 02                   STA COLOR4
F48B  8C 6F 02                   STY GPRIOR
F48E  A5 64                      LDA ADRESS
F490  85 58                      STA SAVMSC
F492  A5 65                      LDA ADRESS+1
F494  85 59                      STA SAVMSC+1
F496  AD 0B D4                   LDA VCOUNT
F499  C9 7A                      CMP #$7A     
F49B  D0 F9                      BNE $F496
F49D  20 1F F9                   JSR $F91F
F4A0  BD 75 FE                   LDA $FE75,X
F4A3  F0 06                      BEQ $F4AB
F4A5  A9 FF                      LDA #$FF     ;IOCFRE?
F4A7  85 64                      STA ADRESS
F4A9  C6 65                      DEC ADRESS+1
F4AB  A5 64                      LDA ADRESS
F4AD  85 68                      STA SAVADR
F4AF  A5 65                      LDA ADRESS+1
F4B1  85 69                      STA SAVADR+1
F4B3  20 13 F9                   JSR $F913
F4B6  A9 41                      LDA #$41     ;ACK?
F4B8  20 17 F9                   JSR $F917
F4BB  86 66                      STX MLTTMP
F4BD  A9 18                      LDA #$18     
F4BF  8D BF 02                   STA BOTSCR
F4C2  A5 57                      LDA DINDEX
F4C4  C9 09                      CMP #9       ;PUTREC?
F4C6  B0 2D                      BCS $F4F5
F4C8  A5 2A                      LDA ICAX1Z
F4CA  29 10                      AND #$10     ;IOCBSZ?, MXDMOD?
F4CC  F0 27                      BEQ $F4F5
F4CE  A9 04                      LDA #4       ;OPNIN?
F4D0  8D BF 02                   STA BOTSCR
F4D3  A2 02                      LDX #2       ;CBUFHI?, CTIMLO?, DIRECT?, LEDGE?, TEMPHI?
F4D5  A9 02                      LDA #2       ;CBUFHI?, CTIMLO?, DIRECT?, LEDGE?, TEMPHI?
F4D7  20 17 F9                   JSR $F917
F4DA  CA                         DEX 
F4DB  10 F8                      BPL $F4D5
F4DD  A4 6A                      LDY RAMTOP
F4DF  88                         DEY 
F4E0  98                         TYA 
F4E1  20 17 F9                   JSR $F917
F4E4  A9 60                      LDA #$60     ;CASET?
F4E6  20 17 F9                   JSR $F917
F4E9  A9 42                      LDA #$42     
F4EB  20 17 F9                   JSR $F917
F4EE  18                         CLC 
F4EF  A9 0C                      LDA #$0C     ;CLOSE?, OPNINO?
F4F1  65 66                      ADC MLTTMP
F4F3  85 66                      STA MLTTMP
F4F5  A4 66                      LDY MLTTMP
F4F7  BE 51 FE                   LDX $FE51,Y
F4FA  A5 51                      LDA HOLD1
F4FC  20 17 F9                   JSR $F917
F4FF  CA                         DEX 
F500  D0 F8                      BNE $F4FA
F502  A5 57                      LDA DINDEX
F504  C9 08                      CMP #8       ;OPNOT?
F506  90 1C                      BCC $F524
F508  A2 5D                      LDX #$5D     
F50A  A5 6A                      LDA RAMTOP
F50C  38                         SEC 
F50D  E9 10                      SBC #$10     ;IOCBSZ?, MXDMOD?
F50F  20 17 F9                   JSR $F917
F512  A9 00                      LDA #0       ;B192HI?, CTIMHI?, RADON?, RIRGHI?, WIRGHI?
F514  20 17 F9                   JSR $F917
F517  A9 4F                      LDA #$4F     
F519  20 17 F9                   JSR $F917
F51C  A5 51                      LDA HOLD1
F51E  20 17 F9                   JSR $F917
F521  CA                         DEX 
F522  D0 F8                      BNE $F51C
F524  A5 59                      LDA SAVMSC+1
F526  20 17 F9                   JSR $F917
F529  A5 58                      LDA SAVMSC
F52B  20 17 F9                   JSR $F917
F52E  A5 51                      LDA HOLD1
F530  09 40                      ORA #$40     
F532  20 17 F9                   JSR $F917
F535  A9 70                      LDA #$70     
F537  20 17 F9                   JSR $F917
F53A  A9 70                      LDA #$70     
F53C  20 17 F9                   JSR $F917
F53F  A5 64                      LDA ADRESS
F541  8D 30 02                   STA SDLSTL
F544  A5 65                      LDA ADRESS+1
F546  8D 31 02                   STA SDLSTH
F549  A9 70                      LDA #$70     
F54B  20 17 F9                   JSR $F917
F54E  A5 64                      LDA ADRESS
F550  8D E5 02                   STA MEMTOP
F553  A5 65                      LDA ADRESS+1
F555  8D E6 02                   STA MEMTOP+1
F558  A5 68                      LDA SAVADR
F55A  85 64                      STA ADRESS
F55C  A5 69                      LDA SAVADR+1
F55E  85 65                      STA ADRESS+1
F560  AD 31 02                   LDA SDLSTH
F563  20 17 F9                   JSR $F917
F566  AD 30 02                   LDA SDLSTL
F569  20 17 F9                   JSR $F917
F56C  A5 4C                      LDA DSTAT
F56E  10 07                      BPL $F577
F570  48                         PHA 
F571  20 FC F3                   JSR $F3FC
F574  68                         PLA 
F575  A8                         TAY 
F576  60                         RTS 
F577  A5 2A                      LDA ICAX1Z
F579  29 20                      AND #$20     ;INSCLR?, RENAME?
F57B  D0 0B                      BNE $F588
F57D  20 B9 F7                   JSR $F7B9
F580  8D 90 02                   STA TXTROW
F583  A5 52                      LDA LMARGN
F585  8D 91 02                   STA TXTCOL
F588  A9 22                      LDA #$22     ;FORMAT?
F58A  0D 2F 02                   ORA SDMCTL
F58D  8D 2F 02                   STA SDMCTL
F590  4C 21 F6                   JMP $F621
F593  20 96 FA                   JSR $FA96
F596  20 A2 F5                   JSR $F5A2
F599  20 32 FB                   JSR $FB32
F59C  20 D4 F9                   JSR $F9D4
F59F  4C 34 F6                   JMP $F634
F5A2  20 47 F9                   JSR $F947
F5A5  B1 64                      LDA (ADRESS),Y
F5A7  2D A0 02                   AND DMASK
F5AA  46 6F                      LSR SHFAMT
F5AC  B0 03                      BCS $F5B1
F5AE  4A                         LSR A
F5AF  10 F9                      BPL $F5AA
F5B1  8D FA 02                   STA CHAR
F5B4  C9 00                      CMP #0       ;B192HI?, CTIMHI?, RADON?, RIRGHI?, WIRGHI?
F5B6  60                         RTS 
F5B7  8D FB 02                   STA ATACHR
F5BA  20 96 FA                   JSR $FA96
F5BD  AD FB 02                   LDA ATACHR
F5C0  C9 7D                      CMP #$7D     
F5C2  D0 06                      BNE $F5CA
F5C4  20 B9 F7                   JSR $F7B9
F5C7  4C 21 F6                   JMP $F621
F5CA  AD FB 02                   LDA ATACHR
F5CD  C9 9B                      CMP #$9B     ;CR?, EOL?
F5CF  D0 06                      BNE $F5D7
F5D1  20 30 FA                   JSR $FA30
F5D4  4C 21 F6                   JMP $F621
F5D7  20 E0 F5                   JSR $F5E0
F5DA  20 D8 F9                   JSR $F9D8
F5DD  4C 21 F6                   JMP $F621
F5E0  AD FF 02                   LDA SSFLAG
F5E3  D0 FB                      BNE $F5E0
F5E5  A2 02                      LDX #2       ;CBUFHI?, CTIMLO?, DIRECT?, LEDGE?, TEMPHI?
F5E7  B5 54                      LDA ROWCRS,X
F5E9  95 5A                      STA OLDROW,X
F5EB  CA                         DEX 
F5EC  10 F9                      BPL $F5E7
F5EE  AD FB 02                   LDA ATACHR
F5F1  A8                         TAY 
F5F2  2A                         ROL A
F5F3  2A                         ROL A
F5F4  2A                         ROL A
F5F5  2A                         ROL A
F5F6  29 03                      AND #3       ;OPEN?
F5F8  AA                         TAX 
F5F9  98                         TYA 
F5FA  29 9F                      AND #$9F     
F5FC  1D F6 FE                   ORA $FEF6,X
F5FF  8D FA 02                   STA CHAR
F602  20 47 F9                   JSR $F947
F605  AD FA 02                   LDA CHAR
F608  46 6F                      LSR SHFAMT
F60A  B0 04                      BCS $F610
F60C  0A                         ASL A
F60D  4C 08 F6                   JMP $F608
F610  2D A0 02                   AND DMASK
F613  85 50                      STA TMPCHR
F615  AD A0 02                   LDA DMASK
F618  49 FF                      EOR #$FF     ;IOCFRE?
F61A  31 64                      AND (ADRESS),Y
F61C  05 50                      ORA TMPCHR
F61E  91 64                      STA (ADRESS),Y
F620  60                         RTS 
F621  20 A2 F5                   JSR $F5A2
F624  85 5D                      STA OLDCHR
F626  A6 57                      LDX DINDEX
F628  D0 0A                      BNE $F634
F62A  AE F0 02                   LDX CRSINH
F62D  D0 05                      BNE $F634
F62F  49 80                      EOR #$80     ;BRKABT?, MAXIOC?
F631  20 FF F5                   JSR $F5FF
F634  A4 4C                      LDY DSTAT
F636  A9 01                      LDA #1       ;APPEND?, DRETRI?, SUCCES?
F638  85 4C                      STA DSTAT
F63A  AD FB 02                   LDA ATACHR
F63D  60                         RTS 
F63E  20 B3 FC  EGETCH           JSR $FCB3
F641  20 88 FA                   JSR $FA88
F644  A5 6B                      LDA BUFCNT
F646  D0 34                      BNE $F67C
F648  A5 54                      LDA ROWCRS
F64A  85 6C                      STA BUFSTR
F64C  A5 55                      LDA COLCRS
F64E  85 6D                      STA BUFSTR+1
F650  20 E2 F6                   JSR KGETCH
F653  84 4C                      STY DSTAT
F655  AD FB 02                   LDA ATACHR
F658  C9 9B                      CMP #$9B     ;CR?, EOL?
F65A  F0 12                      BEQ $F66E
F65C  20 AD F6                   JSR $F6AD
F65F  20 B3 FC                   JSR $FCB3
F662  A5 63                      LDA LOGCOL
F664  C9 71                      CMP #$71     
F666  D0 03                      BNE $F66B
F668  20 0A F9                   JSR $F90A
F66B  4C 50 F6                   JMP $F650
F66E  20 E4 FA                   JSR $FAE4
F671  20 00 FC                   JSR $FC00
F674  A5 6C                      LDA BUFSTR
F676  85 54                      STA ROWCRS
F678  A5 6D                      LDA BUFSTR+1
F67A  85 55                      STA COLCRS
F67C  A5 6B                      LDA BUFCNT
F67E  F0 11                      BEQ $F691
F680  C6 6B                      DEC BUFCNT
F682  F0 0D                      BEQ $F691
F684  A5 4C                      LDA DSTAT
F686  30 F8                      BMI $F680
F688  20 93 F5                   JSR $F593
F68B  8D FB 02                   STA ATACHR
F68E  4C B3 FC                   JMP $FCB3
F691  20 30 FA                   JSR $FA30
F694  A9 9B                      LDA #$9B     ;CR?, EOL?
F696  8D FB 02                   STA ATACHR
F699  20 21 F6                   JSR $F621
F69C  84 4C                      STY DSTAT
F69E  4C B3 FC                   JMP $FCB3
F6A1  6C 64 00                   JMP (ADRESS)
F6A4  8D FB 02  EOUTCH           STA ATACHR
F6A7  20 B3 FC                   JSR $FCB3
F6AA  20 88 FA                   JSR $FA88
F6AD  20 E4 FA                   JSR $FAE4
F6B0  20 8D FC                   JSR $FC8D
F6B3  F0 09                      BEQ $F6BE
F6B5  0E A2 02                   ASL ESCFLG
F6B8  20 CA F5                   JSR $F5CA
F6BB  4C B3 FC                   JMP $FCB3
F6BE  AD FE 02                   LDA DSPFLG
F6C1  0D A2 02                   ORA ESCFLG
F6C4  D0 EF                      BNE $F6B5
F6C6  0E A2 02                   ASL ESCFLG
F6C9  E8                         INX 
F6CA  BD C6 FE                   LDA $FEC6,X
F6CD  85 64                      STA ADRESS
F6CF  BD C7 FE                   LDA $FEC7,X
F6D2  85 65                      STA ADRESS+1
F6D4  20 A1 F6                   JSR $F6A1
F6D7  20 21 F6                   JSR $F621
F6DA  4C B3 FC                   JMP $FCB3
F6DD  A9 FF     KGETC2           LDA #$FF     ;IOCFRE?
F6DF  8D FC 02                   STA CH
F6E2  A5 2A     KGETCH           LDA ICAX1Z
F6E4  4A                         LSR A
F6E5  B0 62                      BCS $F749
F6E7  A9 80                      LDA #$80     ;BRKABT?, MAXIOC?
F6E9  A6 11                      LDX BRKKEY
F6EB  F0 58                      BEQ $F745
F6ED  AD FC 02                   LDA CH
F6F0  C9 FF                      CMP #$FF     ;IOCFRE?
F6F2  F0 EE                      BEQ KGETCH
F6F4  85 7C                      STA HOLDCH
F6F6  A2 FF                      LDX #$FF     ;IOCFRE?
F6F8  8E FC 02                   STX CH
F6FB  20 D8 FC                   JSR $FCD8
F6FE  AA                         TAX 
F6FF  E0 C0                      CPX #$C0     
F701  90 02                      BCC $F705
F703  A2 03                      LDX #3       ;OPEN?
F705  BD FE FE                   LDA $FEFE,X
F708  8D FB 02                   STA ATACHR
F70B  C9 80                      CMP #$80     ;BRKABT?, MAXIOC?
F70D  F0 CE                      BEQ KGETC2
F70F  C9 81                      CMP #$81     ;PRVOPN?
F711  D0 0B                      BNE $F71E
F713  AD B6 02                   LDA INVFLG
F716  49 80                      EOR #$80     ;BRKABT?, MAXIOC?
F718  8D B6 02                   STA INVFLG
F71B  4C DD F6                   JMP KGETC2
F71E  C9 82                      CMP #$82     ;NONDEV?
F720  D0 07                      BNE $F729
F722  A9 00                      LDA #0       ;B192HI?, CTIMHI?, RADON?, RIRGHI?, WIRGHI?
F724  8D BE 02                   STA SHFLOK
F727  F0 B4                      BEQ KGETC2
F729  C9 83                      CMP #$83     ;WRONLY?
F72B  D0 07                      BNE $F734
F72D  A9 40                      LDA #$40     
F72F  8D BE 02                   STA SHFLOK
F732  D0 A9                      BNE KGETC2
F734  C9 84                      CMP #$84     ;NVALID?
F736  D0 07                      BNE $F73F
F738  A9 80                      LDA #$80     ;BRKABT?, MAXIOC?
F73A  8D BE 02                   STA SHFLOK
F73D  D0 9E                      BNE KGETC2
F73F  C9 85                      CMP #$85     ;NOTOPN?
F741  D0 0A                      BNE $F74D
F743  A9 88                      LDA #$88     ;EOFERR?
F745  85 4C                      STA DSTAT
F747  85 11                      STA BRKKEY
F749  A9 9B                      LDA #$9B     ;CR?, EOL?
F74B  D0 26                      BNE $F773
F74D  A5 7C                      LDA HOLDCH
F74F  C9 40                      CMP #$40     
F751  B0 15                      BCS $F768
F753  AD FB 02                   LDA ATACHR
F756  C9 61                      CMP #$61     
F758  90 0E                      BCC $F768
F75A  C9 7B                      CMP #$7B     
F75C  B0 0A                      BCS $F768
F75E  AD BE 02                   LDA SHFLOK
F761  F0 05                      BEQ $F768
F763  05 7C                      ORA HOLDCH
F765  4C FE F6                   JMP $F6FE
F768  20 8D FC                   JSR $FC8D
F76B  F0 09                      BEQ $F776
F76D  AD FB 02                   LDA ATACHR
F770  4D B6 02                   EOR INVFLG
F773  8D FB 02                   STA ATACHR
F776  4C 34 F6                   JMP $F634
F779  A9 80                      LDA #$80     ;BRKABT?, MAXIOC?
F77B  8D A2 02                   STA ESCFLG
F77E  60                         RTS 
F77F  C6 54                      DEC ROWCRS
F781  10 06                      BPL $F789
F783  AE BF 02                   LDX BOTSCR
F786  CA                         DEX 
F787  86 54                      STX ROWCRS
F789  4C 5C FC                   JMP $FC5C
F78C  E6 54                      INC ROWCRS
F78E  A5 54                      LDA ROWCRS
F790  CD BF 02                   CMP BOTSCR
F793  90 F4                      BCC $F789
F795  A2 00                      LDX #0       ;B192HI?, CTIMHI?, RADON?, RIRGHI?, WIRGHI?
F797  F0 EE                      BEQ $F787
F799  C6 55                      DEC COLCRS
F79B  A5 55                      LDA COLCRS
F79D  30 04                      BMI $F7A3
F79F  C5 52                      CMP LMARGN
F7A1  B0 04                      BCS $F7A7
F7A3  A5 53                      LDA RMARGN
F7A5  85 55                      STA COLCRS
F7A7  4C DD FB                   JMP $FBDD
F7AA  E6 55                      INC COLCRS
F7AC  A5 55                      LDA COLCRS
F7AE  C5 53                      CMP RMARGN
F7B0  90 F5                      BCC $F7A7
F7B2  F0 F3                      BEQ $F7A7
F7B4  A5 52                      LDA LMARGN
F7B6  4C A5 F7                   JMP $F7A5
F7B9  20 F3 FC                   JSR $FCF3
F7BC  A0 00                      LDY #0       ;B192HI?, CTIMHI?, RADON?, RIRGHI?, WIRGHI?
F7BE  98                         TYA 
F7BF  91 64                      STA (ADRESS),Y
F7C1  C8                         INY 
F7C2  D0 FB                      BNE $F7BF
F7C4  E6 65                      INC ADRESS+1
F7C6  A6 65                      LDX ADRESS+1
F7C8  E4 6A                      CPX RAMTOP
F7CA  90 F3                      BCC $F7BF
F7CC  A9 FF                      LDA #$FF     ;IOCFRE?
F7CE  99 B2 02                   STA LOGMAP,Y
F7D1  C8                         INY 
F7D2  C0 04                      CPY #4       ;OPNIN?
F7D4  90 F8                      BCC $F7CE
F7D6  20 E4 FC                   JSR $FCE4
F7D9  85 63                      STA LOGCOL
F7DB  85 6D                      STA BUFSTR+1
F7DD  A9 00                      LDA #0       ;B192HI?, CTIMHI?, RADON?, RIRGHI?, WIRGHI?
F7DF  85 54                      STA ROWCRS
F7E1  85 56                      STA COLCRS+1
F7E3  85 6C                      STA BUFSTR
F7E5  60                         RTS 
F7E6  A5 63                      LDA LOGCOL
F7E8  C5 52                      CMP LMARGN
F7EA  F0 21                      BEQ $F80D
F7EC  A5 55                      LDA COLCRS
F7EE  C5 52                      CMP LMARGN
F7F0  D0 03                      BNE $F7F5
F7F2  20 73 FC                   JSR $FC73
F7F5  20 99 F7                   JSR $F799
F7F8  A5 55                      LDA COLCRS
F7FA  C5 53                      CMP RMARGN
F7FC  D0 07                      BNE $F805
F7FE  A5 54                      LDA ROWCRS
F800  F0 03                      BEQ $F805
F802  20 7F F7                   JSR $F77F
F805  A9 20                      LDA #$20     ;INSCLR?, RENAME?
F807  8D FB 02                   STA ATACHR
F80A  20 E0 F5                   JSR $F5E0
F80D  4C DD FB                   JMP $FBDD
F810  20 AA F7                   JSR $F7AA
F813  A5 55                      LDA COLCRS
F815  C5 52                      CMP LMARGN
F817  D0 0A                      BNE $F823
F819  20 34 FA                   JSR $FA34
F81C  20 20 FB                   JSR $FB20
F81F  90 02                      BCC $F823
F821  B0 07                      BCS $F82A
F823  A5 63                      LDA LOGCOL
F825  20 25 FB                   JSR $FB25
F828  90 E6                      BCC $F810
F82A  4C DD FB                   JMP $FBDD
F82D  A5 63                      LDA LOGCOL
F82F  4C 06 FB                   JMP $FB06
F832  A5 63                      LDA LOGCOL
F834  4C 12 FB                   JMP $FB12
F837  20 9D FC                   JSR $FC9D
F83A  20 A2 F5                   JSR $F5A2
F83D  85 7D                      STA INSDAT
F83F  A9 00                      LDA #0       ;B192HI?, CTIMHI?, RADON?, RIRGHI?, WIRGHI?
F841  8D BB 02                   STA SCRFLG
F844  20 FF F5                   JSR $F5FF
F847  A5 63                      LDA LOGCOL
F849  48                         PHA 
F84A  20 DC F9                   JSR $F9DC
F84D  68                         PLA 
F84E  C5 63                      CMP LOGCOL
F850  B0 0C                      BCS $F85E
F852  A5 7D                      LDA INSDAT
F854  48                         PHA 
F855  20 A2 F5                   JSR $F5A2
F858  85 7D                      STA INSDAT
F85A  68                         PLA 
F85B  4C 44 F8                   JMP $F844
F85E  20 A8 FC                   JSR $FCA8
F861  CE BB 02                   DEC SCRFLG
F864  30 04                      BMI $F86A
F866  C6 54                      DEC ROWCRS
F868  D0 F7                      BNE $F861
F86A  4C DD FB                   JMP $FBDD
F86D  20 9D FC                   JSR $FC9D
F870  20 47 F9                   JSR $F947
F873  A5 64                      LDA ADRESS
F875  85 68                      STA SAVADR
F877  A5 65                      LDA ADRESS+1
F879  85 69                      STA SAVADR+1
F87B  A5 63                      LDA LOGCOL
F87D  48                         PHA 
F87E  20 D4 F9                   JSR $F9D4
F881  68                         PLA 
F882  C5 63                      CMP LOGCOL
F884  B0 10                      BCS $F896
F886  A5 54                      LDA ROWCRS
F888  CD BF 02                   CMP BOTSCR
F88B  B0 09                      BCS $F896
F88D  20 A2 F5                   JSR $F5A2
F890  A0 00                      LDY #0       ;B192HI?, CTIMHI?, RADON?, RIRGHI?, WIRGHI?
F892  91 68                      STA (SAVADR),Y
F894  F0 DA                      BEQ $F870
F896  A0 00                      LDY #0       ;B192HI?, CTIMHI?, RADON?, RIRGHI?, WIRGHI?
F898  98                         TYA 
F899  91 68                      STA (SAVADR),Y
F89B  20 68 FC                   JSR $FC68
F89E  20 A8 FC                   JSR $FCA8
F8A1  4C DD FB                   JMP $FBDD
F8A4  38                         SEC 
F8A5  20 7B FB                   JSR $FB7B
F8A8  A5 52                      LDA LMARGN
F8AA  85 55                      STA COLCRS
F8AC  20 47 F9                   JSR $F947
F8AF  A5 64                      LDA ADRESS
F8B1  85 68                      STA SAVADR
F8B3  18                         CLC 
F8B4  69 28                      ADC #$28     ;B192LO?
F8B6  85 66                      STA MLTTMP
F8B8  A5 65                      LDA ADRESS+1
F8BA  85 69                      STA SAVADR+1
F8BC  69 00                      ADC #0       ;B192HI?, CTIMHI?, RADON?, RIRGHI?, WIRGHI?
F8BE  85 67                      STA MLTTMP+1
F8C0  A6 54                      LDX ROWCRS
F8C2  E0 17                      CPX #$17     
F8C4  F0 08                      BEQ $F8CE
F8C6  20 4E FB                   JSR $FB4E
F8C9  E8                         INX 
F8CA  E0 17                      CPX #$17     
F8CC  D0 F8                      BNE $F8C6
F8CE  20 9B FB                   JSR $FB9B
F8D1  4C DD FB                   JMP $FBDD
F8D4  20 DD FB                   JSR $FBDD
F8D7  A4 51                      LDY HOLD1
F8D9  84 54                      STY ROWCRS
F8DB  A4 54                      LDY ROWCRS
F8DD  98                         TYA 
F8DE  38                         SEC 
F8DF  20 23 FB                   JSR $FB23
F8E2  08                         PHP 
F8E3  98                         TYA 
F8E4  18                         CLC 
F8E5  69 78                      ADC #$78     ;RIRGLO?
F8E7  28                         PLP 
F8E8  20 04 FB                   JSR $FB04
F8EB  C8                         INY 
F8EC  C0 18                      CPY #$18     
F8EE  D0 ED                      BNE $F8DD
F8F0  AD B4 02                   LDA $02B4
F8F3  09 01                      ORA #1       ;APPEND?, DRETRI?, SUCCES?
F8F5  8D B4 02                   STA $02B4
F8F8  A5 52                      LDA LMARGN
F8FA  85 55                      STA COLCRS
F8FC  20 47 F9                   JSR $F947
F8FF  20 B7 FB                   JSR $FBB7
F902  20 20 FB                   JSR $FB20
F905  90 D4                      BCC $F8DB
F907  4C DD FB                   JMP $FBDD
F90A  A0 20                      LDY #$20     ;INSCLR?, RENAME?
F90C  20 D8 FC                   JSR $FCD8
F90F  88                         DEY 
F910  10 FA                      BPL $F90C
F912  60                         RTS 
F913  A9 02                      LDA #2       ;CBUFHI?, CTIMLO?, DIRECT?, LEDGE?, TEMPHI?
F915  D0 0A                      BNE $F921
F917  A4 4C                      LDY DSTAT
F919  30 2B                      BMI $F946
F91B  A0 00                      LDY #0       ;B192HI?, CTIMHI?, RADON?, RIRGHI?, WIRGHI?
F91D  91 64                      STA (ADRESS),Y
F91F  A9 01                      LDA #1       ;APPEND?, DRETRI?, SUCCES?
F921  8D 9E 02                   STA SUBTMP
F924  A5 4C                      LDA DSTAT
F926  30 1E                      BMI $F946
F928  A5 64                      LDA ADRESS
F92A  38                         SEC 
F92B  ED 9E 02                   SBC SUBTMP
F92E  85 64                      STA ADRESS
F930  B0 02                      BCS $F934
F932  C6 65                      DEC ADRESS+1
F934  A5 0F                      LDA APPMHI+1
F936  C5 65                      CMP ADRESS+1
F938  90 0C                      BCC $F946
F93A  D0 06                      BNE $F942
F93C  A5 0E                      LDA APPMHI
F93E  C5 64                      CMP ADRESS
F940  90 04                      BCC $F946
F942  A9 93                      LDA #$93     ;SCRMEM?
F944  85 4C                      STA DSTAT
F946  60                         RTS 
F947  A5 54                      LDA ROWCRS
F949  48                         PHA 
F94A  A5 55                      LDA COLCRS
F94C  48                         PHA 
F94D  A5 56                      LDA COLCRS+1
F94F  48                         PHA 
F950  20 F3 FC                   JSR $FCF3
F953  A5 54                      LDA ROWCRS
F955  85 66                      STA MLTTMP
F957  A9 00                      LDA #0       ;B192HI?, CTIMHI?, RADON?, RIRGHI?, WIRGHI?
F959  85 67                      STA MLTTMP+1
F95B  A5 66                      LDA MLTTMP
F95D  0A                         ASL A
F95E  26 67                      ROL MLTTMP+1
F960  85 51                      STA HOLD1
F962  A4 67                      LDY MLTTMP+1
F964  8C 9F 02                   STY HOLD2
F967  0A                         ASL A
F968  26 67                      ROL MLTTMP+1
F96A  0A                         ASL A
F96B  26 67                      ROL MLTTMP+1
F96D  18                         CLC 
F96E  65 51                      ADC HOLD1
F970  85 66                      STA MLTTMP
F972  A5 67                      LDA MLTTMP+1
F974  6D 9F 02                   ADC HOLD2
F977  85 67                      STA MLTTMP+1
F979  A6 57                      LDX DINDEX
F97B  BC 81 FE                   LDY $FE81,X
F97E  88                         DEY 
F97F  30 07                      BMI $F988
F981  06 66                      ASL MLTTMP
F983  26 67                      ROL MLTTMP+1
F985  4C 7E F9                   JMP $F97E
F988  BC A5 FE                   LDY $FEA5,X
F98B  A5 55                      LDA COLCRS
F98D  A2 07                      LDX #7       ;GETCHR?, LOTONE?
F98F  88                         DEY 
F990  30 0A                      BMI $F99C
F992  CA                         DEX 
F993  46 56                      LSR COLCRS+1
F995  6A                         ROR A
F996  6E A1 02                   ROR TMPLBT
F999  4C 8F F9                   JMP $F98F
F99C  C8                         INY 
F99D  18                         CLC 
F99E  65 66                      ADC MLTTMP
F9A0  85 66                      STA MLTTMP
F9A2  90 02                      BCC $F9A6
F9A4  E6 67                      INC MLTTMP+1
F9A6  38                         SEC 
F9A7  6E A1 02                   ROR TMPLBT
F9AA  18                         CLC 
F9AB  CA                         DEX 
F9AC  10 F9                      BPL $F9A7
F9AE  AE A1 02                   LDX TMPLBT
F9B1  A5 66                      LDA MLTTMP
F9B3  18                         CLC 
F9B4  65 64                      ADC ADRESS
F9B6  85 64                      STA ADRESS
F9B8  85 5E                      STA OLDADR
F9BA  A5 67                      LDA MLTTMP+1
F9BC  65 65                      ADC ADRESS+1
F9BE  85 65                      STA ADRESS+1
F9C0  85 5F                      STA OLDADR+1
F9C2  BD B1 FE                   LDA $FEB1,X
F9C5  8D A0 02                   STA DMASK
F9C8  85 6F                      STA SHFAMT
F9CA  68                         PLA 
F9CB  85 56                      STA COLCRS+1
F9CD  68                         PLA 
F9CE  85 55                      STA COLCRS
F9D0  68                         PLA 
F9D1  85 54                      STA ROWCRS
F9D3  60                         RTS 
F9D4  A9 00                      LDA #0       ;B192HI?, CTIMHI?, RADON?, RIRGHI?, WIRGHI?
F9D6  F0 02                      BEQ $F9DA
F9D8  A9 9B                      LDA #$9B     ;CR?, EOL?
F9DA  85 7D                      STA INSDAT
F9DC  E6 63                      INC LOGCOL
F9DE  E6 55                      INC COLCRS
F9E0  D0 02                      BNE $F9E4
F9E2  E6 56                      INC COLCRS+1
F9E4  A5 55                      LDA COLCRS
F9E6  A6 57                      LDX DINDEX
F9E8  DD 8D FE                   CMP $FE8D,X
F9EB  F0 0B                      BEQ $F9F8
F9ED  E0 00                      CPX #0       ;B192HI?, CTIMHI?, RADON?, RIRGHI?, WIRGHI?
F9EF  D0 06                      BNE $F9F7
F9F1  C5 53                      CMP RMARGN
F9F3  F0 02                      BEQ $F9F7
F9F5  B0 01                      BCS $F9F8
F9F7  60                         RTS 
F9F8  E0 08                      CPX #8       ;OPNOT?
F9FA  90 04                      BCC $FA00
F9FC  A5 56                      LDA COLCRS+1
F9FE  F0 F7                      BEQ $F9F7
FA00  A5 57                      LDA DINDEX
FA02  D0 30                      BNE $FA34
FA04  A5 63                      LDA LOGCOL
FA06  C9 51                      CMP #$51     
FA08  90 0A                      BCC $FA14
FA0A  A5 7D                      LDA INSDAT
FA0C  F0 26                      BEQ $FA34
FA0E  20 30 FA                   JSR $FA30
FA11  4C 77 FA                   JMP $FA77
FA14  20 34 FA                   JSR $FA34
FA17  A5 54                      LDA ROWCRS
FA19  18                         CLC 
FA1A  69 78                      ADC #$78     ;RIRGLO?
FA1C  20 25 FB                   JSR $FB25
FA1F  90 08                      BCC $FA29
FA21  A5 7D                      LDA INSDAT
FA23  F0 04                      BEQ $FA29
FA25  18                         CLC 
FA26  20 A5 F8                   JSR $F8A5
FA29  4C DD FB                   JMP $FBDD
FA2C  A9 00                      LDA #0       ;B192HI?, CTIMHI?, RADON?, RIRGHI?, WIRGHI?
FA2E  F0 02                      BEQ $FA32
FA30  A9 9B                      LDA #$9B     ;CR?, EOL?
FA32  85 7D                      STA INSDAT
FA34  20 E4 FC                   JSR $FCE4
FA37  A9 00                      LDA #0       ;B192HI?, CTIMHI?, RADON?, RIRGHI?, WIRGHI?
FA39  85 56                      STA COLCRS+1
FA3B  E6 54                      INC ROWCRS
FA3D  A6 57                      LDX DINDEX
FA3F  A0 18                      LDY #$18     
FA41  24 7B                      BIT SWPFLG
FA43  10 05                      BPL $FA4A
FA45  A0 04                      LDY #4       ;OPNIN?
FA47  98                         TYA 
FA48  D0 03                      BNE $FA4D
FA4A  BD 99 FE                   LDA $FE99,X
FA4D  C5 54                      CMP ROWCRS
FA4F  D0 26                      BNE $FA77
FA51  8C 9D 02                   STY HOLD3
FA54  8A                         TXA 
FA55  D0 20                      BNE $FA77
FA57  A5 7D                      LDA INSDAT
FA59  F0 1C                      BEQ $FA77
FA5B  C9 9B                      CMP #$9B     ;CR?, EOL?
FA5D  38                         SEC 
FA5E  F0 01                      BEQ $FA61
FA60  18                         CLC 
FA61  20 AC FB                   JSR SCROLL
FA64  EE BB 02                   INC SCRFLG
FA67  C6 6C                      DEC BUFSTR
FA69  CE 9D 02                   DEC HOLD3
FA6C  AD B2 02                   LDA LOGMAP
FA6F  38                         SEC 
FA70  10 EF                      BPL $FA61
FA72  AD 9D 02                   LDA HOLD3
FA75  85 54                      STA ROWCRS
FA77  4C DD FB                   JMP $FBDD
FA7A  38                         SEC 
FA7B  B5 70                      LDA ROWAC,X
FA7D  E5 74                      SBC ENDPT
FA7F  95 70                      STA ROWAC,X
FA81  B5 71                      LDA ROWAC+1,X
FA83  E5 75                      SBC ENDPT+1
FA85  95 71                      STA ROWAC+1,X
FA87  60                         RTS 
FA88  AD BF 02                   LDA BOTSCR
FA8B  C9 04                      CMP #4       ;OPNIN?
FA8D  F0 07                      BEQ $FA96
FA8F  A5 57                      LDA DINDEX
FA91  F0 03                      BEQ $FA96
FA93  20 FC F3                   JSR $F3FC
FA96  A9 27                      LDA #$27     ;REDGE?
FA98  C5 53                      CMP RMARGN
FA9A  B0 02                      BCS $FA9E
FA9C  85 53                      STA RMARGN
FA9E  A6 57                      LDX DINDEX
FAA0  BD 99 FE                   LDA $FE99,X
FAA3  C5 54                      CMP ROWCRS
FAA5  90 2A                      BCC $FAD1
FAA7  F0 28                      BEQ $FAD1
FAA9  E0 08                      CPX #8       ;OPNOT?
FAAB  D0 0A                      BNE $FAB7
FAAD  A5 56                      LDA COLCRS+1
FAAF  F0 13                      BEQ $FAC4
FAB1  C9 01                      CMP #1       ;APPEND?, DRETRI?, SUCCES?
FAB3  D0 1C                      BNE $FAD1
FAB5  F0 04                      BEQ $FABB
FAB7  A5 56                      LDA COLCRS+1
FAB9  D0 16                      BNE $FAD1
FABB  BD 8D FE                   LDA $FE8D,X
FABE  C5 55                      CMP COLCRS
FAC0  90 0F                      BCC $FAD1
FAC2  F0 0D                      BEQ $FAD1
FAC4  A9 01                      LDA #1       ;APPEND?, DRETRI?, SUCCES?
FAC6  85 4C                      STA DSTAT
FAC8  A9 80                      LDA #$80     ;BRKABT?, MAXIOC?
FACA  A6 11                      LDX BRKKEY
FACC  85 11                      STA BRKKEY
FACE  F0 06                      BEQ $FAD6
FAD0  60                         RTS 
FAD1  20 D6 F7                   JSR $F7D6
FAD4  A9 8D                      LDA #$8D     ;CRSROR?
FAD6  85 4C                      STA DSTAT
FAD8  68                         PLA 
FAD9  68                         PLA 
FADA  A5 7B                      LDA SWPFLG
FADC  10 03                      BPL $FAE1
FADE  20 B9 FC                   JSR $FCB9
FAE1  4C 34 F6                   JMP $F634
FAE4  A0 00                      LDY #0       ;B192HI?, CTIMHI?, RADON?, RIRGHI?, WIRGHI?
FAE6  A5 5D                      LDA OLDCHR
FAE8  91 5E                      STA (OLDADR),Y
FAEA  60                         RTS 
FAEB  48                         PHA 
FAEC  29 07                      AND #7       ;GETCHR?, LOTONE?
FAEE  AA                         TAX 
FAEF  BD B9 FE                   LDA $FEB9,X
FAF2  85 6E                      STA BITMSK
FAF4  68                         PLA 
FAF5  4A                         LSR A
FAF6  4A                         LSR A
FAF7  4A                         LSR A
FAF8  AA                         TAX 
FAF9  60                         RTS 
FAFA  2E B4 02                   ROL $02B4
FAFD  2E B3 02                   ROL $02B3
FB00  2E B2 02                   ROL LOGMAP
FB03  60                         RTS 
FB04  90 0C                      BCC $FB12
FB06  20 EB FA                   JSR $FAEB
FB09  BD A3 02                   LDA TABMAP,X
FB0C  05 6E                      ORA BITMSK
FB0E  9D A3 02                   STA TABMAP,X
FB11  60                         RTS 
FB12  20 EB FA                   JSR $FAEB
FB15  A5 6E                      LDA BITMSK
FB17  49 FF                      EOR #$FF     ;IOCFRE?
FB19  3D A3 02                   AND TABMAP,X
FB1C  9D A3 02                   STA TABMAP,X
FB1F  60                         RTS 
FB20  A5 54                      LDA ROWCRS
FB22  18                         CLC 
FB23  69 78                      ADC #$78     ;RIRGLO?
FB25  20 EB FA                   JSR $FAEB
FB28  18                         CLC 
FB29  BD A3 02                   LDA TABMAP,X
FB2C  25 6E                      AND BITMSK
FB2E  F0 01                      BEQ $FB31
FB30  38                         SEC 
FB31  60                         RTS 
FB32  AD FA 02                   LDA CHAR
FB35  A4 57                      LDY DINDEX
FB37  C0 03                      CPY #3       ;OPEN?
FB39  B0 0F                      BCS $FB4A
FB3B  2A                         ROL A
FB3C  2A                         ROL A
FB3D  2A                         ROL A
FB3E  2A                         ROL A
FB3F  29 03                      AND #3       ;OPEN?
FB41  AA                         TAX 
FB42  AD FA 02                   LDA CHAR
FB45  29 9F                      AND #$9F     
FB47  1D FA FE                   ORA $FEFA,X
FB4A  8D FB 02                   STA ATACHR
FB4D  60                         RTS 
FB4E  A9 02                      LDA #2       ;CBUFHI?, CTIMLO?, DIRECT?, LEDGE?, TEMPHI?
FB50  85 65                      STA ADRESS+1
FB52  A9 47                      LDA #$47     
FB54  85 64                      STA ADRESS
FB56  A0 27                      LDY #$27     ;REDGE?
FB58  B1 66                      LDA (MLTTMP),Y
FB5A  85 50                      STA TMPCHR
FB5C  B1 68                      LDA (SAVADR),Y
FB5E  91 66                      STA (MLTTMP),Y
FB60  A5 50                      LDA TMPCHR
FB62  91 64                      STA (ADRESS),Y
FB64  88                         DEY 
FB65  10 F1                      BPL $FB58
FB67  A5 65                      LDA ADRESS+1
FB69  85 69                      STA SAVADR+1
FB6B  A5 64                      LDA ADRESS
FB6D  85 68                      STA SAVADR
FB6F  18                         CLC 
FB70  A5 66                      LDA MLTTMP
FB72  69 28                      ADC #$28     ;B192LO?
FB74  85 66                      STA MLTTMP
FB76  90 02                      BCC $FB7A
FB78  E6 67                      INC MLTTMP+1
FB7A  60                         RTS 
FB7B  08                         PHP 
FB7C  A0 17                      LDY #$17     
FB7E  98                         TYA 
FB7F  20 22 FB                   JSR $FB22
FB82  08                         PHP 
FB83  98                         TYA 
FB84  18                         CLC 
FB85  69 79                      ADC #$79     
FB87  28                         PLP 
FB88  20 04 FB                   JSR $FB04
FB8B  88                         DEY 
FB8C  30 04                      BMI $FB92
FB8E  C4 54                      CPY ROWCRS
FB90  B0 EC                      BCS $FB7E
FB92  A5 54                      LDA ROWCRS
FB94  18                         CLC 
FB95  69 78                      ADC #$78     ;RIRGLO?
FB97  28                         PLP 
FB98  4C 04 FB                   JMP $FB04
FB9B  A5 52                      LDA LMARGN
FB9D  85 55                      STA COLCRS
FB9F  20 47 F9                   JSR $F947
FBA2  A0 27                      LDY #$27     ;REDGE?
FBA4  A9 00                      LDA #0       ;B192HI?, CTIMHI?, RADON?, RIRGHI?, WIRGHI?
FBA6  91 64                      STA (ADRESS),Y
FBA8  88                         DEY 
FBA9  10 FB                      BPL $FBA6
FBAB  60                         RTS 
FBAC  20 FA FA  SCROLL           JSR $FAFA
FBAF  A5 58                      LDA SAVMSC
FBB1  85 64                      STA ADRESS
FBB3  A5 59                      LDA SAVMSC+1
FBB5  85 65                      STA ADRESS+1
FBB7  A0 28                      LDY #$28     ;B192LO?
FBB9  B1 64                      LDA (ADRESS),Y
FBBB  A6 6A                      LDX RAMTOP
FBBD  CA                         DEX 
FBBE  E4 65                      CPX ADRESS+1
FBC0  D0 08                      BNE $FBCA
FBC2  A2 D7                      LDX #$D7     
FBC4  E4 64                      CPX ADRESS
FBC6  B0 02                      BCS $FBCA
FBC8  A9 00                      LDA #0       ;B192HI?, CTIMHI?, RADON?, RIRGHI?, WIRGHI?
FBCA  A0 00                      LDY #0       ;B192HI?, CTIMHI?, RADON?, RIRGHI?, WIRGHI?
FBCC  91 64                      STA (ADRESS),Y
FBCE  E6 64                      INC ADRESS
FBD0  D0 E5                      BNE $FBB7
FBD2  E6 65                      INC ADRESS+1
FBD4  A5 65                      LDA ADRESS+1
FBD6  C5 6A                      CMP RAMTOP
FBD8  D0 DD                      BNE $FBB7
FBDA  4C DD FB                   JMP $FBDD
FBDD  A9 00                      LDA #0       ;B192HI?, CTIMHI?, RADON?, RIRGHI?, WIRGHI?
FBDF  85 63                      STA LOGCOL
FBE1  A5 54                      LDA ROWCRS
FBE3  85 51                      STA HOLD1
FBE5  A5 51                      LDA HOLD1
FBE7  20 22 FB                   JSR $FB22
FBEA  B0 0C                      BCS $FBF8
FBEC  A5 63                      LDA LOGCOL
FBEE  18                         CLC 
FBEF  69 28                      ADC #$28     ;B192LO?
FBF1  85 63                      STA LOGCOL
FBF3  C6 51                      DEC HOLD1
FBF5  4C E5 FB                   JMP $FBE5
FBF8  18                         CLC 
FBF9  A5 63                      LDA LOGCOL
FBFB  65 55                      ADC COLCRS
FBFD  85 63                      STA LOGCOL
FBFF  60                         RTS 
FC00  20 9D FC                   JSR $FC9D
FC03  A5 63                      LDA LOGCOL
FC05  48                         PHA 
FC06  A5 6C                      LDA BUFSTR
FC08  85 54                      STA ROWCRS
FC0A  A5 6D                      LDA BUFSTR+1
FC0C  85 55                      STA COLCRS
FC0E  A9 01                      LDA #1       ;APPEND?, DRETRI?, SUCCES?
FC10  85 6B                      STA BUFCNT
FC12  A2 17                      LDX #$17     
FC14  A5 7B                      LDA SWPFLG
FC16  10 02                      BPL $FC1A
FC18  A2 03                      LDX #3       ;OPEN?
FC1A  E4 54                      CPX ROWCRS
FC1C  D0 0B                      BNE $FC29
FC1E  A5 55                      LDA COLCRS
FC20  C5 53                      CMP RMARGN
FC22  D0 05                      BNE $FC29
FC24  E6 6B                      INC BUFCNT
FC26  4C 39 FC                   JMP $FC39
FC29  20 D4 F9                   JSR $F9D4
FC2C  E6 6B                      INC BUFCNT
FC2E  A5 63                      LDA LOGCOL
FC30  C5 52                      CMP LMARGN
FC32  D0 DE                      BNE $FC12
FC34  C6 54                      DEC ROWCRS
FC36  20 99 F7                   JSR $F799
FC39  20 A2 F5                   JSR $F5A2
FC3C  D0 17                      BNE $FC55
FC3E  C6 6B                      DEC BUFCNT
FC40  A5 63                      LDA LOGCOL
FC42  C5 52                      CMP LMARGN
FC44  F0 0F                      BEQ $FC55
FC46  20 99 F7                   JSR $F799
FC49  A5 55                      LDA COLCRS
FC4B  C5 53                      CMP RMARGN
FC4D  D0 02                      BNE $FC51
FC4F  C6 54                      DEC ROWCRS
FC51  A5 6B                      LDA BUFCNT
FC53  D0 E4                      BNE $FC39
FC55  68                         PLA 
FC56  85 63                      STA LOGCOL
FC58  20 A8 FC                   JSR $FCA8
FC5B  60                         RTS 
FC5C  20 DD FB                   JSR $FBDD
FC5F  A5 51                      LDA HOLD1
FC61  85 6C                      STA BUFSTR
FC63  A5 52                      LDA LMARGN
FC65  85 6D                      STA BUFSTR+1
FC67  60                         RTS 
FC68  A5 63                      LDA LOGCOL
FC6A  C5 52                      CMP LMARGN
FC6C  D0 02                      BNE $FC70
FC6E  C6 54                      DEC ROWCRS
FC70  20 DD FB                   JSR $FBDD
FC73  A5 63                      LDA LOGCOL
FC75  C5 52                      CMP LMARGN
FC77  F0 13                      BEQ $FC8C
FC79  20 47 F9                   JSR $F947
FC7C  A5 53                      LDA RMARGN
FC7E  38                         SEC 
FC7F  E5 52                      SBC LMARGN
FC81  A8                         TAY 
FC82  B1 64                      LDA (ADRESS),Y
FC84  D0 06                      BNE $FC8C
FC86  88                         DEY 
FC87  10 F9                      BPL $FC82
FC89  4C DB F8                   JMP $F8DB
FC8C  60                         RTS 
FC8D  A2 2D                      LDX #$2D     
FC8F  BD C6 FE                   LDA $FEC6,X
FC92  CD FB 02                   CMP ATACHR
FC95  F0 05                      BEQ $FC9C
FC97  CA                         DEX 
FC98  CA                         DEX 
FC99  CA                         DEX 
FC9A  10 F3                      BPL $FC8F
FC9C  60                         RTS 
FC9D  A2 02                      LDX #2       ;CBUFHI?, CTIMLO?, DIRECT?, LEDGE?, TEMPHI?
FC9F  B5 54                      LDA ROWCRS,X
FCA1  9D B8 02                   STA TMPROW,X
FCA4  CA                         DEX 
FCA5  10 F8                      BPL $FC9F
FCA7  60                         RTS 
FCA8  A2 02                      LDX #2       ;CBUFHI?, CTIMLO?, DIRECT?, LEDGE?, TEMPHI?
FCAA  BD B8 02                   LDA TMPROW,X
FCAD  95 54                      STA ROWCRS,X
FCAF  CA                         DEX 
FCB0  10 F8                      BPL $FCAA
FCB2  60                         RTS 
FCB3  20 B9 FC                   JSR $FCB9
FCB6  4C 34 F6                   JMP $F634
FCB9  AD BF 02                   LDA BOTSCR
FCBC  C9 18                      CMP #$18     
FCBE  F0 17                      BEQ $FCD7
FCC0  A2 0B                      LDX #$0B     ;PUTCHR?
FCC2  B5 54                      LDA ROWCRS,X
FCC4  48                         PHA 
FCC5  BD 90 02                   LDA TXTROW,X
FCC8  95 54                      STA ROWCRS,X
FCCA  68                         PLA 
FCCB  9D 90 02                   STA TXTROW,X
FCCE  CA                         DEX 
FCCF  10 F1                      BPL $FCC2
FCD1  A5 7B                      LDA SWPFLG
FCD3  49 FF                      EOR #$FF     ;IOCFRE?
FCD5  85 7B                      STA SWPFLG
FCD7  60                         RTS 
FCD8  A2 7F                      LDX #$7F     
FCDA  8E 1F D0                   STX CONSOL
FCDD  8E 0A D4                   STX WSYNC
FCE0  CA                         DEX 
FCE1  10 F7                      BPL $FCDA
FCE3  60                         RTS 
FCE4  A9 00                      LDA #0       ;B192HI?, CTIMHI?, RADON?, RIRGHI?, WIRGHI?
FCE6  A6 7B                      LDX SWPFLG
FCE8  D0 04                      BNE $FCEE
FCEA  A6 57                      LDX DINDEX
FCEC  D0 02                      BNE $FCF0
FCEE  A5 52                      LDA LMARGN
FCF0  85 55                      STA COLCRS
FCF2  60                         RTS 
FCF3  A5 58                      LDA SAVMSC
FCF5  85 64                      STA ADRESS
FCF7  A5 59                      LDA SAVMSC+1
FCF9  85 65                      STA ADRESS+1
FCFB  60                         RTS 
FCFC  A2 00     DRAW             LDX #0       ;B192HI?, CTIMHI?, RADON?, RIRGHI?, WIRGHI?
FCFE  A5 22                      LDA ICCOMZ
FD00  C9 11                      CMP #$11     ;DRAWLN?
FD02  F0 08                      BEQ $FD0C
FD04  C9 12                      CMP #$12     ;FILLIN?
FD06  F0 03                      BEQ $FD0B
FD08  A0 84                      LDY #$84     ;NVALID?
FD0A  60                         RTS 
FD0B  E8                         INX 
FD0C  8E B7 02                   STX FILFLG
FD0F  A5 54                      LDA ROWCRS
FD11  85 60                      STA NEWROW
FD13  A5 55                      LDA COLCRS
FD15  85 61                      STA NEWCOL
FD17  A5 56                      LDA COLCRS+1
FD19  85 62                      STA NEWCOL+1
FD1B  A9 01                      LDA #1       ;APPEND?, DRETRI?, SUCCES?
FD1D  85 79                      STA ROWINC
FD1F  85 7A                      STA COLINC
FD21  38                         SEC 
FD22  A5 60                      LDA NEWROW
FD24  E5 5A                      SBC OLDROW
FD26  85 76                      STA DELTAR
FD28  B0 0D                      BCS $FD37
FD2A  A9 FF                      LDA #$FF     ;IOCFRE?
FD2C  85 79                      STA ROWINC
FD2E  A5 76                      LDA DELTAR
FD30  49 FF                      EOR #$FF     ;IOCFRE?
FD32  18                         CLC 
FD33  69 01                      ADC #1       ;APPEND?, DRETRI?, SUCCES?
FD35  85 76                      STA DELTAR
FD37  38                         SEC 
FD38  A5 61                      LDA NEWCOL
FD3A  E5 5B                      SBC OLDCOL
FD3C  85 77                      STA DELTAC
FD3E  A5 62                      LDA NEWCOL+1
FD40  E5 5C                      SBC OLDCOL+1
FD42  85 78                      STA DELTAC+1
FD44  B0 16                      BCS $FD5C
FD46  A9 FF                      LDA #$FF     ;IOCFRE?
FD48  85 7A                      STA COLINC
FD4A  A5 77                      LDA DELTAC
FD4C  49 FF                      EOR #$FF     ;IOCFRE?
FD4E  85 77                      STA DELTAC
FD50  A5 78                      LDA DELTAC+1
FD52  49 FF                      EOR #$FF     ;IOCFRE?
FD54  85 78                      STA DELTAC+1
FD56  E6 77                      INC DELTAC
FD58  D0 02                      BNE $FD5C
FD5A  E6 78                      INC DELTAC+1
FD5C  A2 02                      LDX #2       ;CBUFHI?, CTIMLO?, DIRECT?, LEDGE?, TEMPHI?
FD5E  A0 00                      LDY #0       ;B192HI?, CTIMHI?, RADON?, RIRGHI?, WIRGHI?
FD60  84 73                      STY COLAC+1
FD62  98                         TYA 
FD63  95 70                      STA ROWAC,X
FD65  B5 5A                      LDA OLDROW,X
FD67  95 54                      STA ROWCRS,X
FD69  CA                         DEX 
FD6A  10 F6                      BPL $FD62
FD6C  A5 77                      LDA DELTAC
FD6E  E8                         INX 
FD6F  A8                         TAY 
FD70  A5 78                      LDA DELTAC+1
FD72  85 7F                      STA COUNTR+1
FD74  85 75                      STA ENDPT+1
FD76  D0 0B                      BNE $FD83
FD78  A5 77                      LDA DELTAC
FD7A  C5 76                      CMP DELTAR
FD7C  B0 05                      BCS $FD83
FD7E  A5 76                      LDA DELTAR
FD80  A2 02                      LDX #2       ;CBUFHI?, CTIMLO?, DIRECT?, LEDGE?, TEMPHI?
FD82  A8                         TAY 
FD83  98                         TYA 
FD84  85 7E                      STA COUNTR
FD86  85 74                      STA ENDPT
FD88  48                         PHA 
FD89  A5 75                      LDA ENDPT+1
FD8B  4A                         LSR A
FD8C  68                         PLA 
FD8D  6A                         ROR A
FD8E  95 70                      STA ROWAC,X
FD90  A5 7E                      LDA COUNTR
FD92  05 7F                      ORA COUNTR+1
FD94  D0 03                      BNE $FD99
FD96  4C 42 FE                   JMP $FE42
FD99  18                         CLC 
FD9A  A5 70                      LDA ROWAC
FD9C  65 76                      ADC DELTAR
FD9E  85 70                      STA ROWAC
FDA0  90 02                      BCC $FDA4
FDA2  E6 71                      INC ROWAC+1
FDA4  A5 71                      LDA ROWAC+1
FDA6  C5 75                      CMP ENDPT+1
FDA8  90 14                      BCC $FDBE
FDAA  D0 06                      BNE $FDB2
FDAC  A5 70                      LDA ROWAC
FDAE  C5 74                      CMP ENDPT
FDB0  90 0C                      BCC $FDBE
FDB2  18                         CLC 
FDB3  A5 54                      LDA ROWCRS
FDB5  65 79                      ADC ROWINC
FDB7  85 54                      STA ROWCRS
FDB9  A2 00                      LDX #0       ;B192HI?, CTIMHI?, RADON?, RIRGHI?, WIRGHI?
FDBB  20 7A FA                   JSR $FA7A
FDBE  18                         CLC 
FDBF  A5 72                      LDA COLAC
FDC1  65 77                      ADC DELTAC
FDC3  85 72                      STA COLAC
FDC5  A5 73                      LDA COLAC+1
FDC7  65 78                      ADC DELTAC+1
FDC9  85 73                      STA COLAC+1
FDCB  C5 75                      CMP ENDPT+1
FDCD  90 27                      BCC $FDF6
FDCF  D0 06                      BNE $FDD7
FDD1  A5 72                      LDA COLAC
FDD3  C5 74                      CMP ENDPT
FDD5  90 1F                      BCC $FDF6
FDD7  24 7A                      BIT COLINC
FDD9  10 10                      BPL $FDEB
FDDB  C6 55                      DEC COLCRS
FDDD  A5 55                      LDA COLCRS
FDDF  C9 FF                      CMP #$FF     ;IOCFRE?
FDE1  D0 0E                      BNE $FDF1
FDE3  A5 56                      LDA COLCRS+1
FDE5  F0 0A                      BEQ $FDF1
FDE7  C6 56                      DEC COLCRS+1
FDE9  10 06                      BPL $FDF1
FDEB  E6 55                      INC COLCRS
FDED  D0 02                      BNE $FDF1
FDEF  E6 56                      INC COLCRS+1
FDF1  A2 02                      LDX #2       ;CBUFHI?, CTIMLO?, DIRECT?, LEDGE?, TEMPHI?
FDF3  20 7A FA                   JSR $FA7A
FDF6  20 96 FA                   JSR $FA96
FDF9  20 E0 F5                   JSR $F5E0
FDFC  AD B7 02                   LDA FILFLG
FDFF  F0 2F                      BEQ $FE30
FE01  20 9D FC                   JSR $FC9D
FE04  AD FB 02                   LDA ATACHR
FE07  8D BC 02                   STA HOLD4
FE0A  A5 54                      LDA ROWCRS
FE0C  48                         PHA 
FE0D  20 DC F9                   JSR $F9DC
FE10  68                         PLA 
FE11  85 54                      STA ROWCRS
FE13  20 96 FA                   JSR $FA96
FE16  20 A2 F5                   JSR $F5A2
FE19  D0 0C                      BNE $FE27
FE1B  AD FD 02                   LDA FILDAT
FE1E  8D FB 02                   STA ATACHR
FE21  20 E0 F5                   JSR $F5E0
FE24  4C 0A FE                   JMP $FE0A
FE27  AD BC 02                   LDA HOLD4
FE2A  8D FB 02                   STA ATACHR
FE2D  20 A8 FC                   JSR $FCA8
FE30  38                         SEC 
FE31  A5 7E                      LDA COUNTR
FE33  E9 01                      SBC #1       ;APPEND?, DRETRI?, SUCCES?
FE35  85 7E                      STA COUNTR
FE37  A5 7F                      LDA COUNTR+1
FE39  E9 00                      SBC #0       ;B192HI?, CTIMHI?, RADON?, RIRGHI?, WIRGHI?
FE3B  85 7F                      STA COUNTR+1
FE3D  30 03                      BMI $FE42
FE3F  4C 90 FD                   JMP $FD90
FE42  4C 34 F6                   JMP $F634
FE45  18                         .BYTE $18
FE46  10                         .BYTE $10
FE47  0A                         .BYTE $0A
FE48  0A                         .BYTE $0A
FE49  10                         .BYTE $10
FE4A  1C                         .BYTE $1C
FE4B  34                         .BYTE $34
FE4C  64                         .BYTE $64
FE4D  C4                         .BYTE $C4
FE4E  C4                         .BYTE $C4
FE4F  C4                         .BYTE $C4
FE50  C4                         .BYTE $C4
FE51  17                         .BYTE $17
FE52  17                         .BYTE $17
FE53  0B                         .BYTE $0B
FE54  17                         .BYTE $17
FE55  2F                         .BYTE $2F
FE56  2F                         .BYTE $2F
FE57  5F                         .BYTE $5F
FE58  5F                         .BYTE $5F
FE59  61                         .BYTE $61
FE5A  61                         .BYTE $61
FE5B  61                         .BYTE $61
FE5C  61                         .BYTE $61
FE5D  13                         .BYTE $13
FE5E  13                         .BYTE $13
FE5F  09                         .BYTE $09
FE60  13                         .BYTE $13
FE61  27                         .BYTE $27
FE62  27                         .BYTE $27
FE63  4F                         .BYTE $4F
FE64  4F                         .BYTE $4F
FE65  41                         .BYTE $41
FE66  41                         .BYTE $41
FE67  41                         .BYTE $41
FE68  41                         .BYTE $41
FE69  02                         .BYTE $02
FE6A  06                         .BYTE $06
FE6B  07                         .BYTE $07
FE6C  08                         .BYTE $08
FE6D  09                         .BYTE $09
FE6E  0A                         .BYTE $0A
FE6F  0B                         .BYTE $0B
FE70  0D                         .BYTE $0D
FE71  0F                         .BYTE $0F
FE72  0F                         .BYTE $0F
FE73  0F                         .BYTE $0F
FE74  0F                         .BYTE $0F
FE75  00                         .BYTE $00
FE76  00                         .BYTE $00
FE77  00                         .BYTE $00
FE78  00                         .BYTE $00
FE79  00                         .BYTE $00
FE7A  00                         .BYTE $00
FE7B  00                         .BYTE $00
FE7C  01                         .BYTE $01
FE7D  01                         .BYTE $01
FE7E  01                         .BYTE $01
FE7F  01                         .BYTE $01
FE80  01                         .BYTE $01
FE81  02                         .BYTE $02
FE82  01                         .BYTE $01
FE83  01                         .BYTE $01
FE84  00                         .BYTE $00
FE85  00                         .BYTE $00
FE86  01                         .BYTE $01
FE87  01                         .BYTE $01
FE88  02                         .BYTE $02
FE89  02                         .BYTE $02
FE8A  02                         .BYTE $02
FE8B  02                         .BYTE $02
FE8C  02                         .BYTE $02
FE8D  28                         .BYTE $28
FE8E  14                         .BYTE $14
FE8F  14                         .BYTE $14
FE90  28                         .BYTE $28
FE91  50                         .BYTE $50
FE92  50                         .BYTE $50
FE93  A0                         .BYTE $A0
FE94  A0                         .BYTE $A0
FE95  40                         .BYTE $40
FE96  50                         .BYTE $50
FE97  50                         .BYTE $50
FE98  50                         .BYTE $50
FE99  18                         .BYTE $18
FE9A  18                         .BYTE $18
FE9B  0C                         .BYTE $0C
FE9C  18                         .BYTE $18
FE9D  30                         .BYTE $30
FE9E  30                         .BYTE $30
FE9F  60                         .BYTE $60
FEA0  60                         .BYTE $60
FEA1  C0                         .BYTE $C0
FEA2  C0                         .BYTE $C0
FEA3  C0                         .BYTE $C0
FEA4  C0                         .BYTE $C0
FEA5  00                         .BYTE $00
FEA6  00                         .BYTE $00
FEA7  00                         .BYTE $00
FEA8  02                         .BYTE $02
FEA9  03                         .BYTE $03
FEAA  02                         .BYTE $02
FEAB  03                         .BYTE $03
FEAC  02                         .BYTE $02
FEAD  03                         .BYTE $03
FEAE  01                         .BYTE $01
FEAF  01                         .BYTE $01
FEB0  01                         .BYTE $01
FEB1  00                         .BYTE $00
FEB2  FF                         .BYTE $FF
FEB3  F0                         .BYTE $F0
FEB4  0F                         .BYTE $0F
FEB5  C0                         .BYTE $C0
FEB6  30                         .BYTE $30
FEB7  0C                         .BYTE $0C
FEB8  03                         .BYTE $03
FEB9  80                         .BYTE $80
FEBA  40                         .BYTE $40
FEBB  20                         .BYTE $20
FEBC  10                         .BYTE $10
FEBD  08                         .BYTE $08
FEBE  04                         .BYTE $04
FEBF  02                         .BYTE $02
FEC0  01                         .BYTE $01
FEC1  28                         .BYTE $28
FEC2  CA                         .BYTE $CA
FEC3  94                         .BYTE $94
FEC4  46                         .BYTE $46
FEC5  00                         .BYTE $00
FEC6  1B                         .BYTE $1B
FEC7  79                         .BYTE $79
FEC8  F7                         .BYTE $F7
FEC9  1C                         .BYTE $1C
FECA  7F                         .BYTE $7F
FECB  F7                         .BYTE $F7
FECC  1D                         .BYTE $1D
FECD  8C                         .BYTE $8C
FECE  F7                         .BYTE $F7
FECF  1E                         .BYTE $1E
FED0  99                         .BYTE $99
FED1  F7                         .BYTE $F7
FED2  1F                         .BYTE $1F
FED3  AA                         .BYTE $AA
FED4  F7                         .BYTE $F7
FED5  7D                         .BYTE $7D
FED6  B9                         .BYTE $B9
FED7  F7                         .BYTE $F7
FED8  7E                         .BYTE $7E
FED9  E6                         .BYTE $E6
FEDA  F7                         .BYTE $F7
FEDB  7F                         .BYTE $7F
FEDC  10                         .BYTE $10
FEDD  F8                         .BYTE $F8
FEDE  9B                         .BYTE $9B
FEDF  30                         .BYTE $30
FEE0  FA                         .BYTE $FA
FEE1  9C                         .BYTE $9C
FEE2  D4                         .BYTE $D4
FEE3  F8                         .BYTE $F8
FEE4  9D                         .BYTE $9D
FEE5  A4                         .BYTE $A4
FEE6  F8                         .BYTE $F8
FEE7  9E                         .BYTE $9E
FEE8  32                         .BYTE $32
FEE9  F8                         .BYTE $F8
FEEA  9F                         .BYTE $9F
FEEB  2D                         .BYTE $2D
FEEC  F8                         .BYTE $F8
FEED  FD                         .BYTE $FD
FEEE  0A                         .BYTE $0A
FEEF  F9                         .BYTE $F9
FEF0  FE                         .BYTE $FE
FEF1  6D                         .BYTE $6D
FEF2  F8                         .BYTE $F8
FEF3  FF                         .BYTE $FF
FEF4  37                         .BYTE $37
FEF5  F8                         .BYTE $F8
FEF6  40                         .BYTE $40
FEF7  00                         .BYTE $00
FEF8  20                         .BYTE $20
FEF9  60                         .BYTE $60
FEFA  20                         .BYTE $20
FEFB  40                         .BYTE $40
FEFC  00                         .BYTE $00
FEFD  60                         .BYTE $60
FEFE  6C                         .BYTE $6C
FEFF  6A                         .BYTE $6A
FF00  3B                         .BYTE $3B
FF01  80                         .BYTE $80
FF02  80                         .BYTE $80
FF03  6B                         .BYTE $6B
FF04  2B                         .BYTE $2B
FF05  2A                         .BYTE $2A
FF06  6F                         .BYTE $6F
FF07  80                         .BYTE $80
FF08  70                         .BYTE $70
FF09  75                         .BYTE $75
FF0A  9B                         .BYTE $9B
FF0B  69                         .BYTE $69
FF0C  2D                         .BYTE $2D
FF0D  3D                         .BYTE $3D
FF0E  76                         .BYTE $76
FF0F  80                         .BYTE $80
FF10  63                         .BYTE $63
FF11  80                         .BYTE $80
FF12  80                         .BYTE $80
FF13  62                         .BYTE $62
FF14  78                         .BYTE $78
FF15  7A                         .BYTE $7A
FF16  34                         .BYTE $34
FF17  80                         .BYTE $80
FF18  33                         .BYTE $33
FF19  36                         .BYTE $36
FF1A  1B                         .BYTE $1B
FF1B  35                         .BYTE $35
FF1C  32                         .BYTE $32
FF1D  31                         .BYTE $31
FF1E  2C                         .BYTE $2C
FF1F  20                         .BYTE $20
FF20  2E                         .BYTE $2E
FF21  6E                         .BYTE $6E
FF22  80                         .BYTE $80
FF23  6D                         .BYTE $6D
FF24  2F                         .BYTE $2F
FF25  81                         .BYTE $81
FF26  72                         .BYTE $72
FF27  80                         .BYTE $80
FF28  65                         .BYTE $65
FF29  79                         .BYTE $79
FF2A  7F                         .BYTE $7F
FF2B  74                         .BYTE $74
FF2C  77                         .BYTE $77
FF2D  71                         .BYTE $71
FF2E  39                         .BYTE $39
FF2F  80                         .BYTE $80
FF30  30                         .BYTE $30
FF31  37                         .BYTE $37
FF32  7E                         .BYTE $7E
FF33  38                         .BYTE $38
FF34  3C                         .BYTE $3C
FF35  3E                         .BYTE $3E
FF36  66                         .BYTE $66
FF37  68                         .BYTE $68
FF38  64                         .BYTE $64
FF39  80                         .BYTE $80
FF3A  82                         .BYTE $82
FF3B  67                         .BYTE $67
FF3C  73                         .BYTE $73
FF3D  61                         .BYTE $61
FF3E  4C                         .BYTE $4C
FF3F  4A                         .BYTE $4A
FF40  3A                         .BYTE $3A
FF41  80                         .BYTE $80
FF42  80                         .BYTE $80
FF43  4B                         .BYTE $4B
FF44  5C                         .BYTE $5C
FF45  5E                         .BYTE $5E
FF46  4F                         .BYTE $4F
FF47  80                         .BYTE $80
FF48  50                         .BYTE $50
FF49  55                         .BYTE $55
FF4A  9B                         .BYTE $9B
FF4B  49                         .BYTE $49
FF4C  5F                         .BYTE $5F
FF4D  7C                         .BYTE $7C
FF4E  56                         .BYTE $56
FF4F  80                         .BYTE $80
FF50  43                         .BYTE $43
FF51  80                         .BYTE $80
FF52  80                         .BYTE $80
FF53  42                         .BYTE $42
FF54  58                         .BYTE $58
FF55  5A                         .BYTE $5A
FF56  24                         .BYTE $24
FF57  80                         .BYTE $80
FF58  23                         .BYTE $23
FF59  26                         .BYTE $26
FF5A  1B                         .BYTE $1B
FF5B  25                         .BYTE $25
FF5C  22                         .BYTE $22
FF5D  21                         .BYTE $21
FF5E  5B                         .BYTE $5B
FF5F  20                         .BYTE $20
FF60  5D                         .BYTE $5D
FF61  4E                         .BYTE $4E
FF62  80                         .BYTE $80
FF63  4D                         .BYTE $4D
FF64  3F                         .BYTE $3F
FF65  81                         .BYTE $81
FF66  52                         .BYTE $52
FF67  80                         .BYTE $80
FF68  45                         .BYTE $45
FF69  59                         .BYTE $59
FF6A  9F                         .BYTE $9F
FF6B  54                         .BYTE $54
FF6C  57                         .BYTE $57
FF6D  51                         .BYTE $51
FF6E  28                         .BYTE $28
FF6F  80                         .BYTE $80
FF70  29                         .BYTE $29
FF71  27                         .BYTE $27
FF72  9C                         .BYTE $9C
FF73  40                         .BYTE $40
FF74  7D                         .BYTE $7D
FF75  9D                         .BYTE $9D
FF76  46                         .BYTE $46
FF77  48                         .BYTE $48
FF78  44                         .BYTE $44
FF79  80                         .BYTE $80
FF7A  83                         .BYTE $83
FF7B  47                         .BYTE $47
FF7C  53                         .BYTE $53
FF7D  41                         .BYTE $41
FF7E  0C                         .BYTE $0C
FF7F  0A                         .BYTE $0A
FF80  7B                         .BYTE $7B
FF81  80                         .BYTE $80
FF82  80                         .BYTE $80
FF83  0B                         .BYTE $0B
FF84  1E                         .BYTE $1E
FF85  1F                         .BYTE $1F
FF86  0F                         .BYTE $0F
FF87  80                         .BYTE $80
FF88  10                         .BYTE $10
FF89  15                         .BYTE $15
FF8A  9B                         .BYTE $9B
FF8B  09                         .BYTE $09
FF8C  1C                         .BYTE $1C
FF8D  1D                         .BYTE $1D
FF8E  16                         .BYTE $16
FF8F  80                         .BYTE $80
FF90  03                         .BYTE $03
FF91  80                         .BYTE $80
FF92  80                         .BYTE $80
FF93  02                         .BYTE $02
FF94  18                         .BYTE $18
FF95  1A                         .BYTE $1A
FF96  80                         .BYTE $80
FF97  80                         .BYTE $80
FF98  85                         .BYTE $85
FF99  80                         .BYTE $80
FF9A  1B                         .BYTE $1B
FF9B  80                         .BYTE $80
FF9C  FD                         .BYTE $FD
FF9D  80                         .BYTE $80
FF9E  00                         .BYTE $00
FF9F  20                         .BYTE $20
FFA0  60                         .BYTE $60
FFA1  0E                         .BYTE $0E
FFA2  80                         .BYTE $80
FFA3  0D                         .BYTE $0D
FFA4  80                         .BYTE $80
FFA5  81                         .BYTE $81
FFA6  12                         .BYTE $12
FFA7  80                         .BYTE $80
FFA8  05                         .BYTE $05
FFA9  19                         .BYTE $19
FFAA  9E                         .BYTE $9E
FFAB  14                         .BYTE $14
FFAC  17                         .BYTE $17
FFAD  11                         .BYTE $11
FFAE  80                         .BYTE $80
FFAF  80                         .BYTE $80
FFB0  80                         .BYTE $80
FFB1  80                         .BYTE $80
FFB2  FE                         .BYTE $FE
FFB3  80                         .BYTE $80
FFB4  7D                         .BYTE $7D
FFB5  FF                         .BYTE $FF
FFB6  06                         .BYTE $06
FFB7  08                         .BYTE $08
FFB8  04                         .BYTE $04
FFB9  80                         .BYTE $80
FFBA  84                         .BYTE $84
FFBB  07                         .BYTE $07
FFBC  13                         .BYTE $13
FFBD  01                         .BYTE $01
FFBE  AD 09 D2  PIRQQ            LDA KBCODE
FFC1  CD F2 02                   CMP CH1
FFC4  D0 05                      BNE $FFCB
FFC6  AD F1 02                   LDA KEYDEL
FFC9  D0 20                      BNE $FFEB
FFCB  AD 09 D2                   LDA KBCODE
FFCE  C9 9F                      CMP #$9F     
FFD0  D0 0A                      BNE $FFDC
FFD2  AD FF 02                   LDA SSFLAG
FFD5  49 FF                      EOR #$FF     ;IOCFRE?
FFD7  8D FF 02                   STA SSFLAG
FFDA  B0 0F                      BCS $FFEB
FFDC  8D FC 02                   STA CH
FFDF  8D F2 02                   STA CH1
FFE2  A9 03                      LDA #3       ;OPEN?
FFE4  8D F1 02                   STA KEYDEL
FFE7  A9 00                      LDA #0       ;B192HI?, CTIMHI?, RADON?, RIRGHI?, WIRGHI?
FFE9  85 4D                      STA ATRACT
FFEB  A9 30                      LDA #$30     ;ASCZER?, FLOPPY?
FFED  8D 2B 02                   STA SRTIMR
FFF0  68                         PLA 
FFF1  40                         RTI 
FFF2  FF                         .BYTE $FF
FFF3  FF                         .BYTE $FF
FFF4  FF                         .BYTE $FF
FFF5  FF                         .BYTE $FF
FFF6  FF                         .BYTE $FF
FFF7  FF                         .BYTE $FF
FFF8  D6                         .BYTE $D6
FFF9  57                         .BYTE $57
FFFA  B4                         .BYTE $B4
FFFB  E7                         .BYTE $E7
FFFC  77                         .BYTE $77
FFFD  E4                         .BYTE $E4
FFFE  F3                         .BYTE $F3
FFFF  E6                         .BYTE $E6
